
./ctarget:     file format elf64-x86-64


Disassembly of section .init:

0000000000401000 <_init>:
  401000:	48 83 ec 08          	sub    $0x8,%rsp
  401004:	48 8b 05 ed 4f 00 00 	mov    0x4fed(%rip),%rax        # 405ff8 <__gmon_start__>
  40100b:	48 85 c0             	test   %rax,%rax
  40100e:	74 02                	je     401012 <_init+0x12>
  401010:	ff d0                	callq  *%rax
  401012:	48 83 c4 08          	add    $0x8,%rsp
  401016:	c3                   	retq   

Disassembly of section .plt:

0000000000401020 <.plt>:
  401020:	ff 35 e2 4f 00 00    	pushq  0x4fe2(%rip)        # 406008 <_GLOBAL_OFFSET_TABLE_+0x8>
  401026:	ff 25 e4 4f 00 00    	jmpq   *0x4fe4(%rip)        # 406010 <_GLOBAL_OFFSET_TABLE_+0x10>
  40102c:	0f 1f 40 00          	nopl   0x0(%rax)

0000000000401030 <strcasecmp@plt>:
  401030:	ff 25 e2 4f 00 00    	jmpq   *0x4fe2(%rip)        # 406018 <strcasecmp@GLIBC_2.2.5>
  401036:	68 00 00 00 00       	pushq  $0x0
  40103b:	e9 e0 ff ff ff       	jmpq   401020 <.plt>

0000000000401040 <__errno_location@plt>:
  401040:	ff 25 da 4f 00 00    	jmpq   *0x4fda(%rip)        # 406020 <__errno_location@GLIBC_2.2.5>
  401046:	68 01 00 00 00       	pushq  $0x1
  40104b:	e9 d0 ff ff ff       	jmpq   401020 <.plt>

0000000000401050 <srandom@plt>:
  401050:	ff 25 d2 4f 00 00    	jmpq   *0x4fd2(%rip)        # 406028 <srandom@GLIBC_2.2.5>
  401056:	68 02 00 00 00       	pushq  $0x2
  40105b:	e9 c0 ff ff ff       	jmpq   401020 <.plt>

0000000000401060 <strncmp@plt>:
  401060:	ff 25 ca 4f 00 00    	jmpq   *0x4fca(%rip)        # 406030 <strncmp@GLIBC_2.2.5>
  401066:	68 03 00 00 00       	pushq  $0x3
  40106b:	e9 b0 ff ff ff       	jmpq   401020 <.plt>

0000000000401070 <strcpy@plt>:
  401070:	ff 25 c2 4f 00 00    	jmpq   *0x4fc2(%rip)        # 406038 <strcpy@GLIBC_2.2.5>
  401076:	68 04 00 00 00       	pushq  $0x4
  40107b:	e9 a0 ff ff ff       	jmpq   401020 <.plt>

0000000000401080 <puts@plt>:
  401080:	ff 25 ba 4f 00 00    	jmpq   *0x4fba(%rip)        # 406040 <puts@GLIBC_2.2.5>
  401086:	68 05 00 00 00       	pushq  $0x5
  40108b:	e9 90 ff ff ff       	jmpq   401020 <.plt>

0000000000401090 <write@plt>:
  401090:	ff 25 b2 4f 00 00    	jmpq   *0x4fb2(%rip)        # 406048 <write@GLIBC_2.2.5>
  401096:	68 06 00 00 00       	pushq  $0x6
  40109b:	e9 80 ff ff ff       	jmpq   401020 <.plt>

00000000004010a0 <mmap@plt>:
  4010a0:	ff 25 aa 4f 00 00    	jmpq   *0x4faa(%rip)        # 406050 <mmap@GLIBC_2.2.5>
  4010a6:	68 07 00 00 00       	pushq  $0x7
  4010ab:	e9 70 ff ff ff       	jmpq   401020 <.plt>

00000000004010b0 <printf@plt>:
  4010b0:	ff 25 a2 4f 00 00    	jmpq   *0x4fa2(%rip)        # 406058 <printf@GLIBC_2.2.5>
  4010b6:	68 08 00 00 00       	pushq  $0x8
  4010bb:	e9 60 ff ff ff       	jmpq   401020 <.plt>

00000000004010c0 <memset@plt>:
  4010c0:	ff 25 9a 4f 00 00    	jmpq   *0x4f9a(%rip)        # 406060 <memset@GLIBC_2.2.5>
  4010c6:	68 09 00 00 00       	pushq  $0x9
  4010cb:	e9 50 ff ff ff       	jmpq   401020 <.plt>

00000000004010d0 <alarm@plt>:
  4010d0:	ff 25 92 4f 00 00    	jmpq   *0x4f92(%rip)        # 406068 <alarm@GLIBC_2.2.5>
  4010d6:	68 0a 00 00 00       	pushq  $0xa
  4010db:	e9 40 ff ff ff       	jmpq   401020 <.plt>

00000000004010e0 <close@plt>:
  4010e0:	ff 25 8a 4f 00 00    	jmpq   *0x4f8a(%rip)        # 406070 <close@GLIBC_2.2.5>
  4010e6:	68 0b 00 00 00       	pushq  $0xb
  4010eb:	e9 30 ff ff ff       	jmpq   401020 <.plt>

00000000004010f0 <read@plt>:
  4010f0:	ff 25 82 4f 00 00    	jmpq   *0x4f82(%rip)        # 406078 <read@GLIBC_2.2.5>
  4010f6:	68 0c 00 00 00       	pushq  $0xc
  4010fb:	e9 20 ff ff ff       	jmpq   401020 <.plt>

0000000000401100 <signal@plt>:
  401100:	ff 25 7a 4f 00 00    	jmpq   *0x4f7a(%rip)        # 406080 <signal@GLIBC_2.2.5>
  401106:	68 0d 00 00 00       	pushq  $0xd
  40110b:	e9 10 ff ff ff       	jmpq   401020 <.plt>

0000000000401110 <gethostbyname@plt>:
  401110:	ff 25 72 4f 00 00    	jmpq   *0x4f72(%rip)        # 406088 <gethostbyname@GLIBC_2.2.5>
  401116:	68 0e 00 00 00       	pushq  $0xe
  40111b:	e9 00 ff ff ff       	jmpq   401020 <.plt>

0000000000401120 <fprintf@plt>:
  401120:	ff 25 6a 4f 00 00    	jmpq   *0x4f6a(%rip)        # 406090 <fprintf@GLIBC_2.2.5>
  401126:	68 0f 00 00 00       	pushq  $0xf
  40112b:	e9 f0 fe ff ff       	jmpq   401020 <.plt>

0000000000401130 <strtol@plt>:
  401130:	ff 25 62 4f 00 00    	jmpq   *0x4f62(%rip)        # 406098 <strtol@GLIBC_2.2.5>
  401136:	68 10 00 00 00       	pushq  $0x10
  40113b:	e9 e0 fe ff ff       	jmpq   401020 <.plt>

0000000000401140 <memcpy@plt>:
  401140:	ff 25 5a 4f 00 00    	jmpq   *0x4f5a(%rip)        # 4060a0 <memcpy@GLIBC_2.14>
  401146:	68 11 00 00 00       	pushq  $0x11
  40114b:	e9 d0 fe ff ff       	jmpq   401020 <.plt>

0000000000401150 <time@plt>:
  401150:	ff 25 52 4f 00 00    	jmpq   *0x4f52(%rip)        # 4060a8 <time@GLIBC_2.2.5>
  401156:	68 12 00 00 00       	pushq  $0x12
  40115b:	e9 c0 fe ff ff       	jmpq   401020 <.plt>

0000000000401160 <random@plt>:
  401160:	ff 25 4a 4f 00 00    	jmpq   *0x4f4a(%rip)        # 4060b0 <random@GLIBC_2.2.5>
  401166:	68 13 00 00 00       	pushq  $0x13
  40116b:	e9 b0 fe ff ff       	jmpq   401020 <.plt>

0000000000401170 <__isoc99_sscanf@plt>:
  401170:	ff 25 42 4f 00 00    	jmpq   *0x4f42(%rip)        # 4060b8 <__isoc99_sscanf@GLIBC_2.7>
  401176:	68 14 00 00 00       	pushq  $0x14
  40117b:	e9 a0 fe ff ff       	jmpq   401020 <.plt>

0000000000401180 <munmap@plt>:
  401180:	ff 25 3a 4f 00 00    	jmpq   *0x4f3a(%rip)        # 4060c0 <munmap@GLIBC_2.2.5>
  401186:	68 15 00 00 00       	pushq  $0x15
  40118b:	e9 90 fe ff ff       	jmpq   401020 <.plt>

0000000000401190 <memmove@plt>:
  401190:	ff 25 32 4f 00 00    	jmpq   *0x4f32(%rip)        # 4060c8 <memmove@GLIBC_2.2.5>
  401196:	68 16 00 00 00       	pushq  $0x16
  40119b:	e9 80 fe ff ff       	jmpq   401020 <.plt>

00000000004011a0 <fopen@plt>:
  4011a0:	ff 25 2a 4f 00 00    	jmpq   *0x4f2a(%rip)        # 4060d0 <fopen@GLIBC_2.2.5>
  4011a6:	68 17 00 00 00       	pushq  $0x17
  4011ab:	e9 70 fe ff ff       	jmpq   401020 <.plt>

00000000004011b0 <getopt@plt>:
  4011b0:	ff 25 22 4f 00 00    	jmpq   *0x4f22(%rip)        # 4060d8 <getopt@GLIBC_2.2.5>
  4011b6:	68 18 00 00 00       	pushq  $0x18
  4011bb:	e9 60 fe ff ff       	jmpq   401020 <.plt>

00000000004011c0 <strtoul@plt>:
  4011c0:	ff 25 1a 4f 00 00    	jmpq   *0x4f1a(%rip)        # 4060e0 <strtoul@GLIBC_2.2.5>
  4011c6:	68 19 00 00 00       	pushq  $0x19
  4011cb:	e9 50 fe ff ff       	jmpq   401020 <.plt>

00000000004011d0 <gethostname@plt>:
  4011d0:	ff 25 12 4f 00 00    	jmpq   *0x4f12(%rip)        # 4060e8 <gethostname@GLIBC_2.2.5>
  4011d6:	68 1a 00 00 00       	pushq  $0x1a
  4011db:	e9 40 fe ff ff       	jmpq   401020 <.plt>

00000000004011e0 <sprintf@plt>:
  4011e0:	ff 25 0a 4f 00 00    	jmpq   *0x4f0a(%rip)        # 4060f0 <sprintf@GLIBC_2.2.5>
  4011e6:	68 1b 00 00 00       	pushq  $0x1b
  4011eb:	e9 30 fe ff ff       	jmpq   401020 <.plt>

00000000004011f0 <exit@plt>:
  4011f0:	ff 25 02 4f 00 00    	jmpq   *0x4f02(%rip)        # 4060f8 <exit@GLIBC_2.2.5>
  4011f6:	68 1c 00 00 00       	pushq  $0x1c
  4011fb:	e9 20 fe ff ff       	jmpq   401020 <.plt>

0000000000401200 <connect@plt>:
  401200:	ff 25 fa 4e 00 00    	jmpq   *0x4efa(%rip)        # 406100 <connect@GLIBC_2.2.5>
  401206:	68 1d 00 00 00       	pushq  $0x1d
  40120b:	e9 10 fe ff ff       	jmpq   401020 <.plt>

0000000000401210 <getc@plt>:
  401210:	ff 25 f2 4e 00 00    	jmpq   *0x4ef2(%rip)        # 406108 <getc@GLIBC_2.2.5>
  401216:	68 1e 00 00 00       	pushq  $0x1e
  40121b:	e9 00 fe ff ff       	jmpq   401020 <.plt>

0000000000401220 <socket@plt>:
  401220:	ff 25 ea 4e 00 00    	jmpq   *0x4eea(%rip)        # 406110 <socket@GLIBC_2.2.5>
  401226:	68 1f 00 00 00       	pushq  $0x1f
  40122b:	e9 f0 fd ff ff       	jmpq   401020 <.plt>

Disassembly of section .text:

0000000000401230 <_start>:
  401230:	31 ed                	xor    %ebp,%ebp
  401232:	49 89 d1             	mov    %rdx,%r9
  401235:	5e                   	pop    %rsi
  401236:	48 89 e2             	mov    %rsp,%rdx
  401239:	48 83 e4 f0          	and    $0xfffffffffffffff0,%rsp
  40123d:	50                   	push   %rax
  40123e:	54                   	push   %rsp
  40123f:	49 c7 c0 d0 2e 40 00 	mov    $0x402ed0,%r8
  401246:	48 c7 c1 70 2e 40 00 	mov    $0x402e70,%rcx
  40124d:	48 c7 c7 f6 14 40 00 	mov    $0x4014f6,%rdi
  401254:	ff 15 96 4d 00 00    	callq  *0x4d96(%rip)        # 405ff0 <__libc_start_main@GLIBC_2.2.5>
  40125a:	f4                   	hlt    
  40125b:	0f 1f 44 00 00       	nopl   0x0(%rax,%rax,1)

0000000000401260 <_dl_relocate_static_pie>:
  401260:	c3                   	retq   
  401261:	66 2e 0f 1f 84 00 00 	nopw   %cs:0x0(%rax,%rax,1)
  401268:	00 00 00 
  40126b:	0f 1f 44 00 00       	nopl   0x0(%rax,%rax,1)

0000000000401270 <deregister_tm_clones>:
  401270:	b8 88 64 40 00       	mov    $0x406488,%eax
  401275:	48 3d 88 64 40 00    	cmp    $0x406488,%rax
  40127b:	74 13                	je     401290 <deregister_tm_clones+0x20>
  40127d:	b8 00 00 00 00       	mov    $0x0,%eax
  401282:	48 85 c0             	test   %rax,%rax
  401285:	74 09                	je     401290 <deregister_tm_clones+0x20>
  401287:	bf 88 64 40 00       	mov    $0x406488,%edi
  40128c:	ff e0                	jmpq   *%rax
  40128e:	66 90                	xchg   %ax,%ax
  401290:	c3                   	retq   
  401291:	66 66 2e 0f 1f 84 00 	data16 nopw %cs:0x0(%rax,%rax,1)
  401298:	00 00 00 00 
  40129c:	0f 1f 40 00          	nopl   0x0(%rax)

00000000004012a0 <register_tm_clones>:
  4012a0:	be 88 64 40 00       	mov    $0x406488,%esi
  4012a5:	48 81 ee 88 64 40 00 	sub    $0x406488,%rsi
  4012ac:	48 c1 fe 03          	sar    $0x3,%rsi
  4012b0:	48 89 f0             	mov    %rsi,%rax
  4012b3:	48 c1 e8 3f          	shr    $0x3f,%rax
  4012b7:	48 01 c6             	add    %rax,%rsi
  4012ba:	48 d1 fe             	sar    %rsi
  4012bd:	74 11                	je     4012d0 <register_tm_clones+0x30>
  4012bf:	b8 00 00 00 00       	mov    $0x0,%eax
  4012c4:	48 85 c0             	test   %rax,%rax
  4012c7:	74 07                	je     4012d0 <register_tm_clones+0x30>
  4012c9:	bf 88 64 40 00       	mov    $0x406488,%edi
  4012ce:	ff e0                	jmpq   *%rax
  4012d0:	c3                   	retq   
  4012d1:	66 66 2e 0f 1f 84 00 	data16 nopw %cs:0x0(%rax,%rax,1)
  4012d8:	00 00 00 00 
  4012dc:	0f 1f 40 00          	nopl   0x0(%rax)

00000000004012e0 <__do_global_dtors_aux>:
  4012e0:	80 3d e1 51 00 00 00 	cmpb   $0x0,0x51e1(%rip)        # 4064c8 <completed.7325>
  4012e7:	75 17                	jne    401300 <__do_global_dtors_aux+0x20>
  4012e9:	55                   	push   %rbp
  4012ea:	48 89 e5             	mov    %rsp,%rbp
  4012ed:	e8 7e ff ff ff       	callq  401270 <deregister_tm_clones>
  4012f2:	c6 05 cf 51 00 00 01 	movb   $0x1,0x51cf(%rip)        # 4064c8 <completed.7325>
  4012f9:	5d                   	pop    %rbp
  4012fa:	c3                   	retq   
  4012fb:	0f 1f 44 00 00       	nopl   0x0(%rax,%rax,1)
  401300:	c3                   	retq   
  401301:	66 66 2e 0f 1f 84 00 	data16 nopw %cs:0x0(%rax,%rax,1)
  401308:	00 00 00 00 
  40130c:	0f 1f 40 00          	nopl   0x0(%rax)

0000000000401310 <frame_dummy>:
  401310:	eb 8e                	jmp    4012a0 <register_tm_clones>

0000000000401312 <usage>:
  401312:	48 83 ec 08          	sub    $0x8,%rsp
  401316:	48 89 fe             	mov    %rdi,%rsi
  401319:	83 3d ec 51 00 00 00 	cmpl   $0x0,0x51ec(%rip)        # 40650c <is_checker>
  401320:	74 4b                	je     40136d <usage+0x5b>
  401322:	48 8d 3d df 1c 00 00 	lea    0x1cdf(%rip),%rdi        # 403008 <_IO_stdin_used+0x8>
  401329:	b8 00 00 00 00       	mov    $0x0,%eax
  40132e:	e8 7d fd ff ff       	callq  4010b0 <printf@plt>
  401333:	48 8d 3d 06 1d 00 00 	lea    0x1d06(%rip),%rdi        # 403040 <_IO_stdin_used+0x40>
  40133a:	e8 41 fd ff ff       	callq  401080 <puts@plt>
  40133f:	48 8d 3d 72 1e 00 00 	lea    0x1e72(%rip),%rdi        # 4031b8 <_IO_stdin_used+0x1b8>
  401346:	e8 35 fd ff ff       	callq  401080 <puts@plt>
  40134b:	48 8d 3d 16 1d 00 00 	lea    0x1d16(%rip),%rdi        # 403068 <_IO_stdin_used+0x68>
  401352:	e8 29 fd ff ff       	callq  401080 <puts@plt>
  401357:	48 8d 3d 74 1e 00 00 	lea    0x1e74(%rip),%rdi        # 4031d2 <_IO_stdin_used+0x1d2>
  40135e:	e8 1d fd ff ff       	callq  401080 <puts@plt>
  401363:	bf 00 00 00 00       	mov    $0x0,%edi
  401368:	e8 83 fe ff ff       	callq  4011f0 <exit@plt>
  40136d:	48 8d 3d 7a 1e 00 00 	lea    0x1e7a(%rip),%rdi        # 4031ee <_IO_stdin_used+0x1ee>
  401374:	b8 00 00 00 00       	mov    $0x0,%eax
  401379:	e8 32 fd ff ff       	callq  4010b0 <printf@plt>
  40137e:	48 8d 3d 0b 1d 00 00 	lea    0x1d0b(%rip),%rdi        # 403090 <_IO_stdin_used+0x90>
  401385:	e8 f6 fc ff ff       	callq  401080 <puts@plt>
  40138a:	48 8d 3d 27 1d 00 00 	lea    0x1d27(%rip),%rdi        # 4030b8 <_IO_stdin_used+0xb8>
  401391:	e8 ea fc ff ff       	callq  401080 <puts@plt>
  401396:	48 8d 3d 6f 1e 00 00 	lea    0x1e6f(%rip),%rdi        # 40320c <_IO_stdin_used+0x20c>
  40139d:	e8 de fc ff ff       	callq  401080 <puts@plt>
  4013a2:	eb bf                	jmp    401363 <usage+0x51>

00000000004013a4 <initialize_target>:
  4013a4:	55                   	push   %rbp
  4013a5:	53                   	push   %rbx
  4013a6:	48 81 ec 08 21 00 00 	sub    $0x2108,%rsp
  4013ad:	89 f5                	mov    %esi,%ebp
  4013af:	89 3d 47 51 00 00    	mov    %edi,0x5147(%rip)        # 4064fc <check_level>
  4013b5:	8b 3d 75 4d 00 00    	mov    0x4d75(%rip),%edi        # 406130 <target_id>
  4013bb:	e8 8f 1a 00 00       	callq  402e4f <gencookie>
  4013c0:	89 05 42 51 00 00    	mov    %eax,0x5142(%rip)        # 406508 <cookie>
  4013c6:	89 c7                	mov    %eax,%edi
  4013c8:	e8 82 1a 00 00       	callq  402e4f <gencookie>
  4013cd:	89 05 31 51 00 00    	mov    %eax,0x5131(%rip)        # 406504 <authkey>
  4013d3:	8b 05 57 4d 00 00    	mov    0x4d57(%rip),%eax        # 406130 <target_id>
  4013d9:	8d 78 01             	lea    0x1(%rax),%edi
  4013dc:	e8 6f fc ff ff       	callq  401050 <srandom@plt>
  4013e1:	e8 7a fd ff ff       	callq  401160 <random@plt>
  4013e6:	89 c7                	mov    %eax,%edi
  4013e8:	e8 de 02 00 00       	callq  4016cb <scramble>
  4013ed:	89 c3                	mov    %eax,%ebx
  4013ef:	85 ed                	test   %ebp,%ebp
  4013f1:	75 3d                	jne    401430 <initialize_target+0x8c>
  4013f3:	b8 00 00 00 00       	mov    $0x0,%eax
  4013f8:	01 d8                	add    %ebx,%eax
  4013fa:	0f b7 c0             	movzwl %ax,%eax
  4013fd:	8d 04 c5 00 01 00 00 	lea    0x100(,%rax,8),%eax
  401404:	89 c0                	mov    %eax,%eax
  401406:	48 89 05 73 50 00 00 	mov    %rax,0x5073(%rip)        # 406480 <buf_offset>
  40140d:	c6 05 14 5d 00 00 63 	movb   $0x63,0x5d14(%rip)        # 407128 <target_prefix>
  401414:	83 3d dd 50 00 00 00 	cmpl   $0x0,0x50dd(%rip)        # 4064f8 <notify>
  40141b:	74 09                	je     401426 <initialize_target+0x82>
  40141d:	83 3d e8 50 00 00 00 	cmpl   $0x0,0x50e8(%rip)        # 40650c <is_checker>
  401424:	74 22                	je     401448 <initialize_target+0xa4>
  401426:	48 81 c4 08 21 00 00 	add    $0x2108,%rsp
  40142d:	5b                   	pop    %rbx
  40142e:	5d                   	pop    %rbp
  40142f:	c3                   	retq   
  401430:	bf 00 00 00 00       	mov    $0x0,%edi
  401435:	e8 16 fd ff ff       	callq  401150 <time@plt>
  40143a:	89 c7                	mov    %eax,%edi
  40143c:	e8 0f fc ff ff       	callq  401050 <srandom@plt>
  401441:	e8 1a fd ff ff       	callq  401160 <random@plt>
  401446:	eb b0                	jmp    4013f8 <initialize_target+0x54>
  401448:	48 89 e7             	mov    %rsp,%rdi
  40144b:	be 00 01 00 00       	mov    $0x100,%esi
  401450:	e8 7b fd ff ff       	callq  4011d0 <gethostname@plt>
  401455:	89 c5                	mov    %eax,%ebp
  401457:	85 c0                	test   %eax,%eax
  401459:	75 26                	jne    401481 <initialize_target+0xdd>
  40145b:	89 c3                	mov    %eax,%ebx
  40145d:	48 63 c3             	movslq %ebx,%rax
  401460:	48 8d 15 f9 4c 00 00 	lea    0x4cf9(%rip),%rdx        # 406160 <host_table>
  401467:	48 8b 3c c2          	mov    (%rdx,%rax,8),%rdi
  40146b:	48 85 ff             	test   %rdi,%rdi
  40146e:	74 2c                	je     40149c <initialize_target+0xf8>
  401470:	48 89 e6             	mov    %rsp,%rsi
  401473:	e8 b8 fb ff ff       	callq  401030 <strcasecmp@plt>
  401478:	85 c0                	test   %eax,%eax
  40147a:	74 1b                	je     401497 <initialize_target+0xf3>
  40147c:	83 c3 01             	add    $0x1,%ebx
  40147f:	eb dc                	jmp    40145d <initialize_target+0xb9>
  401481:	48 8d 3d 60 1c 00 00 	lea    0x1c60(%rip),%rdi        # 4030e8 <_IO_stdin_used+0xe8>
  401488:	e8 f3 fb ff ff       	callq  401080 <puts@plt>
  40148d:	bf 08 00 00 00       	mov    $0x8,%edi
  401492:	e8 59 fd ff ff       	callq  4011f0 <exit@plt>
  401497:	bd 01 00 00 00       	mov    $0x1,%ebp
  40149c:	85 ed                	test   %ebp,%ebp
  40149e:	74 38                	je     4014d8 <initialize_target+0x134>
  4014a0:	48 8d bc 24 00 01 00 	lea    0x100(%rsp),%rdi
  4014a7:	00 
  4014a8:	e8 07 17 00 00       	callq  402bb4 <init_driver>
  4014ad:	85 c0                	test   %eax,%eax
  4014af:	0f 89 71 ff ff ff    	jns    401426 <initialize_target+0x82>
  4014b5:	48 8d b4 24 00 01 00 	lea    0x100(%rsp),%rsi
  4014bc:	00 
  4014bd:	48 8d 3d 9c 1c 00 00 	lea    0x1c9c(%rip),%rdi        # 403160 <_IO_stdin_used+0x160>
  4014c4:	b8 00 00 00 00       	mov    $0x0,%eax
  4014c9:	e8 e2 fb ff ff       	callq  4010b0 <printf@plt>
  4014ce:	bf 08 00 00 00       	mov    $0x8,%edi
  4014d3:	e8 18 fd ff ff       	callq  4011f0 <exit@plt>
  4014d8:	48 89 e6             	mov    %rsp,%rsi
  4014db:	48 8d 3d 3e 1c 00 00 	lea    0x1c3e(%rip),%rdi        # 403120 <_IO_stdin_used+0x120>
  4014e2:	b8 00 00 00 00       	mov    $0x0,%eax
  4014e7:	e8 c4 fb ff ff       	callq  4010b0 <printf@plt>
  4014ec:	bf 08 00 00 00       	mov    $0x8,%edi
  4014f1:	e8 fa fc ff ff       	callq  4011f0 <exit@plt>

00000000004014f6 <main>:
  4014f6:	41 56                	push   %r14
  4014f8:	41 55                	push   %r13
  4014fa:	41 54                	push   %r12
  4014fc:	55                   	push   %rbp
  4014fd:	53                   	push   %rbx
  4014fe:	89 fd                	mov    %edi,%ebp
  401500:	48 89 f3             	mov    %rsi,%rbx
  401503:	48 c7 c6 86 1f 40 00 	mov    $0x401f86,%rsi
  40150a:	bf 0b 00 00 00       	mov    $0xb,%edi
  40150f:	e8 ec fb ff ff       	callq  401100 <signal@plt>
  401514:	48 c7 c6 32 1f 40 00 	mov    $0x401f32,%rsi
  40151b:	bf 07 00 00 00       	mov    $0x7,%edi
  401520:	e8 db fb ff ff       	callq  401100 <signal@plt>
  401525:	48 c7 c6 da 1f 40 00 	mov    $0x401fda,%rsi
  40152c:	bf 04 00 00 00       	mov    $0x4,%edi
  401531:	e8 ca fb ff ff       	callq  401100 <signal@plt>
  401536:	83 3d cf 4f 00 00 00 	cmpl   $0x0,0x4fcf(%rip)        # 40650c <is_checker>
  40153d:	75 26                	jne    401565 <main+0x6f>
  40153f:	4c 8d 25 e7 1c 00 00 	lea    0x1ce7(%rip),%r12        # 40322d <_IO_stdin_used+0x22d>
  401546:	48 8b 05 53 4f 00 00 	mov    0x4f53(%rip),%rax        # 4064a0 <stdin@@GLIBC_2.2.5>
  40154d:	48 89 05 9c 4f 00 00 	mov    %rax,0x4f9c(%rip)        # 4064f0 <infile>
  401554:	41 bd 00 00 00 00    	mov    $0x0,%r13d
  40155a:	41 be 00 00 00 00    	mov    $0x0,%r14d
  401560:	e9 88 00 00 00       	jmpq   4015ed <main+0xf7>
  401565:	48 c7 c6 2e 20 40 00 	mov    $0x40202e,%rsi
  40156c:	bf 0e 00 00 00       	mov    $0xe,%edi
  401571:	e8 8a fb ff ff       	callq  401100 <signal@plt>
  401576:	bf 05 00 00 00       	mov    $0x5,%edi
  40157b:	e8 50 fb ff ff       	callq  4010d0 <alarm@plt>
  401580:	4c 8d 25 9e 1c 00 00 	lea    0x1c9e(%rip),%r12        # 403225 <_IO_stdin_used+0x225>
  401587:	eb bd                	jmp    401546 <main+0x50>
  401589:	48 8b 3b             	mov    (%rbx),%rdi
  40158c:	e8 81 fd ff ff       	callq  401312 <usage>
  401591:	48 8d 35 e2 1e 00 00 	lea    0x1ee2(%rip),%rsi        # 40347a <_IO_stdin_used+0x47a>
  401598:	48 8b 3d 09 4f 00 00 	mov    0x4f09(%rip),%rdi        # 4064a8 <optarg@@GLIBC_2.2.5>
  40159f:	e8 fc fb ff ff       	callq  4011a0 <fopen@plt>
  4015a4:	48 89 05 45 4f 00 00 	mov    %rax,0x4f45(%rip)        # 4064f0 <infile>
  4015ab:	48 85 c0             	test   %rax,%rax
  4015ae:	75 3d                	jne    4015ed <main+0xf7>
  4015b0:	48 8b 15 f1 4e 00 00 	mov    0x4ef1(%rip),%rdx        # 4064a8 <optarg@@GLIBC_2.2.5>
  4015b7:	48 8d 35 74 1c 00 00 	lea    0x1c74(%rip),%rsi        # 403232 <_IO_stdin_used+0x232>
  4015be:	48 8b 3d fb 4e 00 00 	mov    0x4efb(%rip),%rdi        # 4064c0 <stderr@@GLIBC_2.2.5>
  4015c5:	e8 56 fb ff ff       	callq  401120 <fprintf@plt>
  4015ca:	b8 01 00 00 00       	mov    $0x1,%eax
  4015cf:	e9 ce 00 00 00       	jmpq   4016a2 <main+0x1ac>
  4015d4:	ba 10 00 00 00       	mov    $0x10,%edx
  4015d9:	be 00 00 00 00       	mov    $0x0,%esi
  4015de:	48 8b 3d c3 4e 00 00 	mov    0x4ec3(%rip),%rdi        # 4064a8 <optarg@@GLIBC_2.2.5>
  4015e5:	e8 d6 fb ff ff       	callq  4011c0 <strtoul@plt>
  4015ea:	41 89 c6             	mov    %eax,%r14d
  4015ed:	4c 89 e2             	mov    %r12,%rdx
  4015f0:	48 89 de             	mov    %rbx,%rsi
  4015f3:	89 ef                	mov    %ebp,%edi
  4015f5:	e8 b6 fb ff ff       	callq  4011b0 <getopt@plt>
  4015fa:	3c ff                	cmp    $0xff,%al
  4015fc:	74 5d                	je     40165b <main+0x165>
  4015fe:	0f be f0             	movsbl %al,%esi
  401601:	83 e8 61             	sub    $0x61,%eax
  401604:	3c 10                	cmp    $0x10,%al
  401606:	77 3a                	ja     401642 <main+0x14c>
  401608:	0f b6 c0             	movzbl %al,%eax
  40160b:	48 8d 15 5e 1c 00 00 	lea    0x1c5e(%rip),%rdx        # 403270 <_IO_stdin_used+0x270>
  401612:	48 63 04 82          	movslq (%rdx,%rax,4),%rax
  401616:	48 01 d0             	add    %rdx,%rax
  401619:	ff e0                	jmpq   *%rax
  40161b:	ba 0a 00 00 00       	mov    $0xa,%edx
  401620:	be 00 00 00 00       	mov    $0x0,%esi
  401625:	48 8b 3d 7c 4e 00 00 	mov    0x4e7c(%rip),%rdi        # 4064a8 <optarg@@GLIBC_2.2.5>
  40162c:	e8 ff fa ff ff       	callq  401130 <strtol@plt>
  401631:	41 89 c5             	mov    %eax,%r13d
  401634:	eb b7                	jmp    4015ed <main+0xf7>
  401636:	c7 05 b8 4e 00 00 00 	movl   $0x0,0x4eb8(%rip)        # 4064f8 <notify>
  40163d:	00 00 00 
  401640:	eb ab                	jmp    4015ed <main+0xf7>
  401642:	48 8d 3d 06 1c 00 00 	lea    0x1c06(%rip),%rdi        # 40324f <_IO_stdin_used+0x24f>
  401649:	b8 00 00 00 00       	mov    $0x0,%eax
  40164e:	e8 5d fa ff ff       	callq  4010b0 <printf@plt>
  401653:	48 8b 3b             	mov    (%rbx),%rdi
  401656:	e8 b7 fc ff ff       	callq  401312 <usage>
  40165b:	be 00 00 00 00       	mov    $0x0,%esi
  401660:	44 89 ef             	mov    %r13d,%edi
  401663:	e8 3c fd ff ff       	callq  4013a4 <initialize_target>
  401668:	83 3d 9d 4e 00 00 00 	cmpl   $0x0,0x4e9d(%rip)        # 40650c <is_checker>
  40166f:	74 09                	je     40167a <main+0x184>
  401671:	44 39 35 8c 4e 00 00 	cmp    %r14d,0x4e8c(%rip)        # 406504 <authkey>
  401678:	75 31                	jne    4016ab <main+0x1b5>
  40167a:	8b 35 88 4e 00 00    	mov    0x4e88(%rip),%esi        # 406508 <cookie>
  401680:	48 8d 3d db 1b 00 00 	lea    0x1bdb(%rip),%rdi        # 403262 <_IO_stdin_used+0x262>
  401687:	b8 00 00 00 00       	mov    $0x0,%eax
  40168c:	e8 1f fa ff ff       	callq  4010b0 <printf@plt>
  401691:	48 8b 3d e8 4d 00 00 	mov    0x4de8(%rip),%rdi        # 406480 <buf_offset>
  401698:	e8 6c 0a 00 00       	callq  402109 <stable_launch>
  40169d:	b8 00 00 00 00       	mov    $0x0,%eax
  4016a2:	5b                   	pop    %rbx
  4016a3:	5d                   	pop    %rbp
  4016a4:	41 5c                	pop    %r12
  4016a6:	41 5d                	pop    %r13
  4016a8:	41 5e                	pop    %r14
  4016aa:	c3                   	retq   
  4016ab:	44 89 f6             	mov    %r14d,%esi
  4016ae:	48 8d 3d d3 1a 00 00 	lea    0x1ad3(%rip),%rdi        # 403188 <_IO_stdin_used+0x188>
  4016b5:	b8 00 00 00 00       	mov    $0x0,%eax
  4016ba:	e8 f1 f9 ff ff       	callq  4010b0 <printf@plt>
  4016bf:	b8 00 00 00 00       	mov    $0x0,%eax
  4016c4:	e8 56 06 00 00       	callq  401d1f <check_fail>
  4016c9:	eb af                	jmp    40167a <main+0x184>

00000000004016cb <scramble>:
  4016cb:	b8 00 00 00 00       	mov    $0x0,%eax
  4016d0:	83 f8 09             	cmp    $0x9,%eax
  4016d3:	77 13                	ja     4016e8 <scramble+0x1d>
  4016d5:	69 d0 c5 f0 00 00    	imul   $0xf0c5,%eax,%edx
  4016db:	01 fa                	add    %edi,%edx
  4016dd:	89 c1                	mov    %eax,%ecx
  4016df:	89 54 8c d0          	mov    %edx,-0x30(%rsp,%rcx,4)
  4016e3:	83 c0 01             	add    $0x1,%eax
  4016e6:	eb e8                	jmp    4016d0 <scramble+0x5>
  4016e8:	8b 44 24 d8          	mov    -0x28(%rsp),%eax
  4016ec:	69 c0 99 5f 00 00    	imul   $0x5f99,%eax,%eax
  4016f2:	89 44 24 d8          	mov    %eax,-0x28(%rsp)
  4016f6:	8b 44 24 e8          	mov    -0x18(%rsp),%eax
  4016fa:	69 c0 bf 12 00 00    	imul   $0x12bf,%eax,%eax
  401700:	89 44 24 e8          	mov    %eax,-0x18(%rsp)
  401704:	8b 44 24 f0          	mov    -0x10(%rsp),%eax
  401708:	69 c0 0f 93 00 00    	imul   $0x930f,%eax,%eax
  40170e:	89 44 24 f0          	mov    %eax,-0x10(%rsp)
  401712:	8b 44 24 f4          	mov    -0xc(%rsp),%eax
  401716:	69 c0 2f 2f 00 00    	imul   $0x2f2f,%eax,%eax
  40171c:	89 44 24 f4          	mov    %eax,-0xc(%rsp)
  401720:	8b 44 24 ec          	mov    -0x14(%rsp),%eax
  401724:	69 c0 ba c7 00 00    	imul   $0xc7ba,%eax,%eax
  40172a:	89 44 24 ec          	mov    %eax,-0x14(%rsp)
  40172e:	8b 44 24 ec          	mov    -0x14(%rsp),%eax
  401732:	69 c0 7a d6 00 00    	imul   $0xd67a,%eax,%eax
  401738:	89 44 24 ec          	mov    %eax,-0x14(%rsp)
  40173c:	8b 44 24 d0          	mov    -0x30(%rsp),%eax
  401740:	69 c0 75 b7 00 00    	imul   $0xb775,%eax,%eax
  401746:	89 44 24 d0          	mov    %eax,-0x30(%rsp)
  40174a:	8b 44 24 e4          	mov    -0x1c(%rsp),%eax
  40174e:	69 c0 2a b6 00 00    	imul   $0xb62a,%eax,%eax
  401754:	89 44 24 e4          	mov    %eax,-0x1c(%rsp)
  401758:	8b 44 24 e0          	mov    -0x20(%rsp),%eax
  40175c:	69 c0 ea 78 00 00    	imul   $0x78ea,%eax,%eax
  401762:	89 44 24 e0          	mov    %eax,-0x20(%rsp)
  401766:	8b 44 24 dc          	mov    -0x24(%rsp),%eax
  40176a:	69 c0 df 48 00 00    	imul   $0x48df,%eax,%eax
  401770:	89 44 24 dc          	mov    %eax,-0x24(%rsp)
  401774:	8b 44 24 dc          	mov    -0x24(%rsp),%eax
  401778:	69 c0 f1 0e 00 00    	imul   $0xef1,%eax,%eax
  40177e:	89 44 24 dc          	mov    %eax,-0x24(%rsp)
  401782:	8b 44 24 d4          	mov    -0x2c(%rsp),%eax
  401786:	69 c0 2c d7 00 00    	imul   $0xd72c,%eax,%eax
  40178c:	89 44 24 d4          	mov    %eax,-0x2c(%rsp)
  401790:	8b 44 24 f4          	mov    -0xc(%rsp),%eax
  401794:	69 c0 80 40 00 00    	imul   $0x4080,%eax,%eax
  40179a:	89 44 24 f4          	mov    %eax,-0xc(%rsp)
  40179e:	8b 44 24 f0          	mov    -0x10(%rsp),%eax
  4017a2:	69 c0 b5 e1 00 00    	imul   $0xe1b5,%eax,%eax
  4017a8:	89 44 24 f0          	mov    %eax,-0x10(%rsp)
  4017ac:	8b 44 24 e0          	mov    -0x20(%rsp),%eax
  4017b0:	69 c0 df 4b 00 00    	imul   $0x4bdf,%eax,%eax
  4017b6:	89 44 24 e0          	mov    %eax,-0x20(%rsp)
  4017ba:	8b 44 24 f4          	mov    -0xc(%rsp),%eax
  4017be:	69 c0 3d 2f 00 00    	imul   $0x2f3d,%eax,%eax
  4017c4:	89 44 24 f4          	mov    %eax,-0xc(%rsp)
  4017c8:	8b 44 24 ec          	mov    -0x14(%rsp),%eax
  4017cc:	69 c0 62 2a 00 00    	imul   $0x2a62,%eax,%eax
  4017d2:	89 44 24 ec          	mov    %eax,-0x14(%rsp)
  4017d6:	8b 44 24 e0          	mov    -0x20(%rsp),%eax
  4017da:	69 c0 cf 64 00 00    	imul   $0x64cf,%eax,%eax
  4017e0:	89 44 24 e0          	mov    %eax,-0x20(%rsp)
  4017e4:	8b 44 24 f4          	mov    -0xc(%rsp),%eax
  4017e8:	69 c0 a7 9c 00 00    	imul   $0x9ca7,%eax,%eax
  4017ee:	89 44 24 f4          	mov    %eax,-0xc(%rsp)
  4017f2:	8b 44 24 d8          	mov    -0x28(%rsp),%eax
  4017f6:	69 c0 39 2b 00 00    	imul   $0x2b39,%eax,%eax
  4017fc:	89 44 24 d8          	mov    %eax,-0x28(%rsp)
  401800:	8b 44 24 dc          	mov    -0x24(%rsp),%eax
  401804:	69 c0 b6 51 00 00    	imul   $0x51b6,%eax,%eax
  40180a:	89 44 24 dc          	mov    %eax,-0x24(%rsp)
  40180e:	8b 44 24 e4          	mov    -0x1c(%rsp),%eax
  401812:	69 c0 29 c2 00 00    	imul   $0xc229,%eax,%eax
  401818:	89 44 24 e4          	mov    %eax,-0x1c(%rsp)
  40181c:	8b 44 24 f4          	mov    -0xc(%rsp),%eax
  401820:	69 c0 cf f5 00 00    	imul   $0xf5cf,%eax,%eax
  401826:	89 44 24 f4          	mov    %eax,-0xc(%rsp)
  40182a:	8b 44 24 dc          	mov    -0x24(%rsp),%eax
  40182e:	69 c0 fc af 00 00    	imul   $0xaffc,%eax,%eax
  401834:	89 44 24 dc          	mov    %eax,-0x24(%rsp)
  401838:	8b 44 24 f4          	mov    -0xc(%rsp),%eax
  40183c:	69 c0 07 8f 00 00    	imul   $0x8f07,%eax,%eax
  401842:	89 44 24 f4          	mov    %eax,-0xc(%rsp)
  401846:	8b 44 24 d8          	mov    -0x28(%rsp),%eax
  40184a:	69 c0 4e c9 00 00    	imul   $0xc94e,%eax,%eax
  401850:	89 44 24 d8          	mov    %eax,-0x28(%rsp)
  401854:	8b 44 24 d8          	mov    -0x28(%rsp),%eax
  401858:	69 c0 b4 45 00 00    	imul   $0x45b4,%eax,%eax
  40185e:	89 44 24 d8          	mov    %eax,-0x28(%rsp)
  401862:	8b 44 24 ec          	mov    -0x14(%rsp),%eax
  401866:	69 c0 79 9f 00 00    	imul   $0x9f79,%eax,%eax
  40186c:	89 44 24 ec          	mov    %eax,-0x14(%rsp)
  401870:	8b 44 24 ec          	mov    -0x14(%rsp),%eax
  401874:	69 c0 5d f6 00 00    	imul   $0xf65d,%eax,%eax
  40187a:	89 44 24 ec          	mov    %eax,-0x14(%rsp)
  40187e:	8b 44 24 ec          	mov    -0x14(%rsp),%eax
  401882:	69 c0 ad c4 00 00    	imul   $0xc4ad,%eax,%eax
  401888:	89 44 24 ec          	mov    %eax,-0x14(%rsp)
  40188c:	8b 44 24 e4          	mov    -0x1c(%rsp),%eax
  401890:	69 c0 f3 90 00 00    	imul   $0x90f3,%eax,%eax
  401896:	89 44 24 e4          	mov    %eax,-0x1c(%rsp)
  40189a:	8b 44 24 dc          	mov    -0x24(%rsp),%eax
  40189e:	69 c0 b6 ed 00 00    	imul   $0xedb6,%eax,%eax
  4018a4:	89 44 24 dc          	mov    %eax,-0x24(%rsp)
  4018a8:	8b 44 24 e4          	mov    -0x1c(%rsp),%eax
  4018ac:	69 c0 e8 35 00 00    	imul   $0x35e8,%eax,%eax
  4018b2:	89 44 24 e4          	mov    %eax,-0x1c(%rsp)
  4018b6:	8b 44 24 f4          	mov    -0xc(%rsp),%eax
  4018ba:	69 c0 c7 78 00 00    	imul   $0x78c7,%eax,%eax
  4018c0:	89 44 24 f4          	mov    %eax,-0xc(%rsp)
  4018c4:	8b 44 24 d0          	mov    -0x30(%rsp),%eax
  4018c8:	69 c0 84 e6 00 00    	imul   $0xe684,%eax,%eax
  4018ce:	89 44 24 d0          	mov    %eax,-0x30(%rsp)
  4018d2:	8b 44 24 e0          	mov    -0x20(%rsp),%eax
  4018d6:	69 c0 f1 36 00 00    	imul   $0x36f1,%eax,%eax
  4018dc:	89 44 24 e0          	mov    %eax,-0x20(%rsp)
  4018e0:	8b 44 24 e8          	mov    -0x18(%rsp),%eax
  4018e4:	69 c0 b3 a5 00 00    	imul   $0xa5b3,%eax,%eax
  4018ea:	89 44 24 e8          	mov    %eax,-0x18(%rsp)
  4018ee:	8b 44 24 d0          	mov    -0x30(%rsp),%eax
  4018f2:	69 c0 65 41 00 00    	imul   $0x4165,%eax,%eax
  4018f8:	89 44 24 d0          	mov    %eax,-0x30(%rsp)
  4018fc:	8b 44 24 d4          	mov    -0x2c(%rsp),%eax
  401900:	69 c0 6d 71 00 00    	imul   $0x716d,%eax,%eax
  401906:	89 44 24 d4          	mov    %eax,-0x2c(%rsp)
  40190a:	8b 44 24 d4          	mov    -0x2c(%rsp),%eax
  40190e:	69 c0 3b 0a 00 00    	imul   $0xa3b,%eax,%eax
  401914:	89 44 24 d4          	mov    %eax,-0x2c(%rsp)
  401918:	8b 44 24 d4          	mov    -0x2c(%rsp),%eax
  40191c:	69 c0 3d ea 00 00    	imul   $0xea3d,%eax,%eax
  401922:	89 44 24 d4          	mov    %eax,-0x2c(%rsp)
  401926:	8b 44 24 e4          	mov    -0x1c(%rsp),%eax
  40192a:	69 c0 6d 9e 00 00    	imul   $0x9e6d,%eax,%eax
  401930:	89 44 24 e4          	mov    %eax,-0x1c(%rsp)
  401934:	8b 44 24 d4          	mov    -0x2c(%rsp),%eax
  401938:	69 c0 03 74 00 00    	imul   $0x7403,%eax,%eax
  40193e:	89 44 24 d4          	mov    %eax,-0x2c(%rsp)
  401942:	8b 44 24 ec          	mov    -0x14(%rsp),%eax
  401946:	69 c0 26 b6 00 00    	imul   $0xb626,%eax,%eax
  40194c:	89 44 24 ec          	mov    %eax,-0x14(%rsp)
  401950:	8b 44 24 d8          	mov    -0x28(%rsp),%eax
  401954:	69 c0 16 bf 00 00    	imul   $0xbf16,%eax,%eax
  40195a:	89 44 24 d8          	mov    %eax,-0x28(%rsp)
  40195e:	8b 44 24 dc          	mov    -0x24(%rsp),%eax
  401962:	69 c0 9e ac 00 00    	imul   $0xac9e,%eax,%eax
  401968:	89 44 24 dc          	mov    %eax,-0x24(%rsp)
  40196c:	8b 44 24 e0          	mov    -0x20(%rsp),%eax
  401970:	69 c0 bf 6e 00 00    	imul   $0x6ebf,%eax,%eax
  401976:	89 44 24 e0          	mov    %eax,-0x20(%rsp)
  40197a:	8b 44 24 d4          	mov    -0x2c(%rsp),%eax
  40197e:	69 c0 5e 0b 00 00    	imul   $0xb5e,%eax,%eax
  401984:	89 44 24 d4          	mov    %eax,-0x2c(%rsp)
  401988:	8b 44 24 e8          	mov    -0x18(%rsp),%eax
  40198c:	69 c0 d9 ec 00 00    	imul   $0xecd9,%eax,%eax
  401992:	89 44 24 e8          	mov    %eax,-0x18(%rsp)
  401996:	8b 44 24 e8          	mov    -0x18(%rsp),%eax
  40199a:	69 c0 36 77 00 00    	imul   $0x7736,%eax,%eax
  4019a0:	89 44 24 e8          	mov    %eax,-0x18(%rsp)
  4019a4:	8b 44 24 e8          	mov    -0x18(%rsp),%eax
  4019a8:	69 c0 26 28 00 00    	imul   $0x2826,%eax,%eax
  4019ae:	89 44 24 e8          	mov    %eax,-0x18(%rsp)
  4019b2:	8b 44 24 e0          	mov    -0x20(%rsp),%eax
  4019b6:	69 c0 98 0b 00 00    	imul   $0xb98,%eax,%eax
  4019bc:	89 44 24 e0          	mov    %eax,-0x20(%rsp)
  4019c0:	8b 44 24 d0          	mov    -0x30(%rsp),%eax
  4019c4:	69 c0 42 a7 00 00    	imul   $0xa742,%eax,%eax
  4019ca:	89 44 24 d0          	mov    %eax,-0x30(%rsp)
  4019ce:	8b 44 24 d0          	mov    -0x30(%rsp),%eax
  4019d2:	69 c0 5c 69 00 00    	imul   $0x695c,%eax,%eax
  4019d8:	89 44 24 d0          	mov    %eax,-0x30(%rsp)
  4019dc:	8b 44 24 d0          	mov    -0x30(%rsp),%eax
  4019e0:	69 c0 5f 3e 00 00    	imul   $0x3e5f,%eax,%eax
  4019e6:	89 44 24 d0          	mov    %eax,-0x30(%rsp)
  4019ea:	8b 44 24 e0          	mov    -0x20(%rsp),%eax
  4019ee:	69 c0 25 19 00 00    	imul   $0x1925,%eax,%eax
  4019f4:	89 44 24 e0          	mov    %eax,-0x20(%rsp)
  4019f8:	8b 44 24 e8          	mov    -0x18(%rsp),%eax
  4019fc:	69 c0 21 47 00 00    	imul   $0x4721,%eax,%eax
  401a02:	89 44 24 e8          	mov    %eax,-0x18(%rsp)
  401a06:	8b 44 24 ec          	mov    -0x14(%rsp),%eax
  401a0a:	69 c0 8e 58 00 00    	imul   $0x588e,%eax,%eax
  401a10:	89 44 24 ec          	mov    %eax,-0x14(%rsp)
  401a14:	8b 44 24 e0          	mov    -0x20(%rsp),%eax
  401a18:	69 c0 79 f5 00 00    	imul   $0xf579,%eax,%eax
  401a1e:	89 44 24 e0          	mov    %eax,-0x20(%rsp)
  401a22:	8b 44 24 f4          	mov    -0xc(%rsp),%eax
  401a26:	69 c0 86 25 00 00    	imul   $0x2586,%eax,%eax
  401a2c:	89 44 24 f4          	mov    %eax,-0xc(%rsp)
  401a30:	8b 44 24 d0          	mov    -0x30(%rsp),%eax
  401a34:	69 c0 88 89 00 00    	imul   $0x8988,%eax,%eax
  401a3a:	89 44 24 d0          	mov    %eax,-0x30(%rsp)
  401a3e:	8b 44 24 dc          	mov    -0x24(%rsp),%eax
  401a42:	69 c0 98 04 00 00    	imul   $0x498,%eax,%eax
  401a48:	89 44 24 dc          	mov    %eax,-0x24(%rsp)
  401a4c:	8b 44 24 dc          	mov    -0x24(%rsp),%eax
  401a50:	69 c0 78 6c 00 00    	imul   $0x6c78,%eax,%eax
  401a56:	89 44 24 dc          	mov    %eax,-0x24(%rsp)
  401a5a:	8b 44 24 dc          	mov    -0x24(%rsp),%eax
  401a5e:	69 c0 ee 9c 00 00    	imul   $0x9cee,%eax,%eax
  401a64:	89 44 24 dc          	mov    %eax,-0x24(%rsp)
  401a68:	8b 44 24 f4          	mov    -0xc(%rsp),%eax
  401a6c:	69 c0 1d 94 00 00    	imul   $0x941d,%eax,%eax
  401a72:	89 44 24 f4          	mov    %eax,-0xc(%rsp)
  401a76:	8b 44 24 f4          	mov    -0xc(%rsp),%eax
  401a7a:	69 c0 af 2c 00 00    	imul   $0x2caf,%eax,%eax
  401a80:	89 44 24 f4          	mov    %eax,-0xc(%rsp)
  401a84:	8b 44 24 d0          	mov    -0x30(%rsp),%eax
  401a88:	69 c0 4d c2 00 00    	imul   $0xc24d,%eax,%eax
  401a8e:	89 44 24 d0          	mov    %eax,-0x30(%rsp)
  401a92:	8b 44 24 d4          	mov    -0x2c(%rsp),%eax
  401a96:	69 c0 1d 8a 00 00    	imul   $0x8a1d,%eax,%eax
  401a9c:	89 44 24 d4          	mov    %eax,-0x2c(%rsp)
  401aa0:	8b 44 24 d0          	mov    -0x30(%rsp),%eax
  401aa4:	69 c0 46 85 00 00    	imul   $0x8546,%eax,%eax
  401aaa:	89 44 24 d0          	mov    %eax,-0x30(%rsp)
  401aae:	8b 44 24 e4          	mov    -0x1c(%rsp),%eax
  401ab2:	69 c0 3f 82 00 00    	imul   $0x823f,%eax,%eax
  401ab8:	89 44 24 e4          	mov    %eax,-0x1c(%rsp)
  401abc:	8b 44 24 e0          	mov    -0x20(%rsp),%eax
  401ac0:	69 c0 12 67 00 00    	imul   $0x6712,%eax,%eax
  401ac6:	89 44 24 e0          	mov    %eax,-0x20(%rsp)
  401aca:	8b 44 24 e4          	mov    -0x1c(%rsp),%eax
  401ace:	69 c0 42 ec 00 00    	imul   $0xec42,%eax,%eax
  401ad4:	89 44 24 e4          	mov    %eax,-0x1c(%rsp)
  401ad8:	8b 44 24 d0          	mov    -0x30(%rsp),%eax
  401adc:	69 c0 f7 52 00 00    	imul   $0x52f7,%eax,%eax
  401ae2:	89 44 24 d0          	mov    %eax,-0x30(%rsp)
  401ae6:	ba 00 00 00 00       	mov    $0x0,%edx
  401aeb:	b8 00 00 00 00       	mov    $0x0,%eax
  401af0:	83 fa 09             	cmp    $0x9,%edx
  401af3:	77 0d                	ja     401b02 <scramble+0x437>
  401af5:	89 d1                	mov    %edx,%ecx
  401af7:	8b 4c 8c d0          	mov    -0x30(%rsp,%rcx,4),%ecx
  401afb:	01 c8                	add    %ecx,%eax
  401afd:	83 c2 01             	add    $0x1,%edx
  401b00:	eb ee                	jmp    401af0 <scramble+0x425>
  401b02:	c3                   	retq   

0000000000401b03 <getbuf>:
  401b03:	48 83 ec 38          	sub    $0x38,%rsp
  401b07:	48 89 e7             	mov    %rsp,%rdi
  401b0a:	e8 43 02 00 00       	callq  401d52 <Gets>
  401b0f:	b8 01 00 00 00       	mov    $0x1,%eax
  401b14:	48 83 c4 38          	add    $0x38,%rsp
  401b18:	c3                   	retq   

0000000000401b19 <touch1>:
  401b19:	48 83 ec 08          	sub    $0x8,%rsp
  401b1d:	c7 05 d9 49 00 00 01 	movl   $0x1,0x49d9(%rip)        # 406500 <vlevel>
  401b24:	00 00 00 
  401b27:	48 8d 3d ea 17 00 00 	lea    0x17ea(%rip),%rdi        # 403318 <_IO_stdin_used+0x318>
  401b2e:	e8 4d f5 ff ff       	callq  401080 <puts@plt>
  401b33:	bf 01 00 00 00       	mov    $0x1,%edi
  401b38:	e8 0f 03 00 00       	callq  401e4c <validate>
  401b3d:	bf 00 00 00 00       	mov    $0x0,%edi
  401b42:	e8 a9 f6 ff ff       	callq  4011f0 <exit@plt>

0000000000401b47 <touch2>:
  401b47:	48 83 ec 08          	sub    $0x8,%rsp
  401b4b:	89 fe                	mov    %edi,%esi
  401b4d:	c7 05 a9 49 00 00 02 	movl   $0x2,0x49a9(%rip)        # 406500 <vlevel>
  401b54:	00 00 00 
  401b57:	39 3d ab 49 00 00    	cmp    %edi,0x49ab(%rip)        # 406508 <cookie>
  401b5d:	74 25                	je     401b84 <touch2+0x3d>
  401b5f:	48 8d 3d 02 18 00 00 	lea    0x1802(%rip),%rdi        # 403368 <_IO_stdin_used+0x368>
  401b66:	b8 00 00 00 00       	mov    $0x0,%eax
  401b6b:	e8 40 f5 ff ff       	callq  4010b0 <printf@plt>
  401b70:	bf 02 00 00 00       	mov    $0x2,%edi
  401b75:	e8 90 03 00 00       	callq  401f0a <fail>
  401b7a:	bf 00 00 00 00       	mov    $0x0,%edi
  401b7f:	e8 6c f6 ff ff       	callq  4011f0 <exit@plt>
  401b84:	48 8d 3d b5 17 00 00 	lea    0x17b5(%rip),%rdi        # 403340 <_IO_stdin_used+0x340>
  401b8b:	b8 00 00 00 00       	mov    $0x0,%eax
  401b90:	e8 1b f5 ff ff       	callq  4010b0 <printf@plt>
  401b95:	bf 02 00 00 00       	mov    $0x2,%edi
  401b9a:	e8 ad 02 00 00       	callq  401e4c <validate>
  401b9f:	eb d9                	jmp    401b7a <touch2+0x33>

0000000000401ba1 <hexmatch>:
  401ba1:	41 54                	push   %r12
  401ba3:	55                   	push   %rbp
  401ba4:	53                   	push   %rbx
  401ba5:	48 83 ec 70          	sub    $0x70,%rsp
  401ba9:	89 fd                	mov    %edi,%ebp
  401bab:	48 89 f3             	mov    %rsi,%rbx
  401bae:	e8 ad f5 ff ff       	callq  401160 <random@plt>
  401bb3:	48 89 c1             	mov    %rax,%rcx
  401bb6:	48 ba 0b d7 a3 70 3d 	movabs $0xa3d70a3d70a3d70b,%rdx
  401bbd:	0a d7 a3 
  401bc0:	48 f7 ea             	imul   %rdx
  401bc3:	48 01 ca             	add    %rcx,%rdx
  401bc6:	48 c1 fa 06          	sar    $0x6,%rdx
  401bca:	48 89 c8             	mov    %rcx,%rax
  401bcd:	48 c1 f8 3f          	sar    $0x3f,%rax
  401bd1:	48 29 c2             	sub    %rax,%rdx
  401bd4:	48 8d 04 92          	lea    (%rdx,%rdx,4),%rax
  401bd8:	48 8d 14 80          	lea    (%rax,%rax,4),%rdx
  401bdc:	48 8d 04 95 00 00 00 	lea    0x0(,%rdx,4),%rax
  401be3:	00 
  401be4:	48 29 c1             	sub    %rax,%rcx
  401be7:	4c 8d 24 0c          	lea    (%rsp,%rcx,1),%r12
  401beb:	89 ea                	mov    %ebp,%edx
  401bed:	48 8d 35 41 17 00 00 	lea    0x1741(%rip),%rsi        # 403335 <_IO_stdin_used+0x335>
  401bf4:	4c 89 e7             	mov    %r12,%rdi
  401bf7:	b8 00 00 00 00       	mov    $0x0,%eax
  401bfc:	e8 df f5 ff ff       	callq  4011e0 <sprintf@plt>
  401c01:	ba 09 00 00 00       	mov    $0x9,%edx
  401c06:	4c 89 e6             	mov    %r12,%rsi
  401c09:	48 89 df             	mov    %rbx,%rdi
  401c0c:	e8 4f f4 ff ff       	callq  401060 <strncmp@plt>
  401c11:	85 c0                	test   %eax,%eax
  401c13:	0f 94 c0             	sete   %al
  401c16:	0f b6 c0             	movzbl %al,%eax
  401c19:	48 83 c4 70          	add    $0x70,%rsp
  401c1d:	5b                   	pop    %rbx
  401c1e:	5d                   	pop    %rbp
  401c1f:	41 5c                	pop    %r12
  401c21:	c3                   	retq   

0000000000401c22 <touch3>:
  401c22:	53                   	push   %rbx
  401c23:	48 89 fb             	mov    %rdi,%rbx
  401c26:	c7 05 d0 48 00 00 03 	movl   $0x3,0x48d0(%rip)        # 406500 <vlevel>
  401c2d:	00 00 00 
  401c30:	48 89 fe             	mov    %rdi,%rsi
  401c33:	8b 3d cf 48 00 00    	mov    0x48cf(%rip),%edi        # 406508 <cookie>
  401c39:	e8 63 ff ff ff       	callq  401ba1 <hexmatch>
  401c3e:	85 c0                	test   %eax,%eax
  401c40:	74 28                	je     401c6a <touch3+0x48>
  401c42:	48 89 de             	mov    %rbx,%rsi
  401c45:	48 8d 3d 44 17 00 00 	lea    0x1744(%rip),%rdi        # 403390 <_IO_stdin_used+0x390>
  401c4c:	b8 00 00 00 00       	mov    $0x0,%eax
  401c51:	e8 5a f4 ff ff       	callq  4010b0 <printf@plt>
  401c56:	bf 03 00 00 00       	mov    $0x3,%edi
  401c5b:	e8 ec 01 00 00       	callq  401e4c <validate>
  401c60:	bf 00 00 00 00       	mov    $0x0,%edi
  401c65:	e8 86 f5 ff ff       	callq  4011f0 <exit@plt>
  401c6a:	48 89 de             	mov    %rbx,%rsi
  401c6d:	48 8d 3d 44 17 00 00 	lea    0x1744(%rip),%rdi        # 4033b8 <_IO_stdin_used+0x3b8>
  401c74:	b8 00 00 00 00       	mov    $0x0,%eax
  401c79:	e8 32 f4 ff ff       	callq  4010b0 <printf@plt>
  401c7e:	bf 03 00 00 00       	mov    $0x3,%edi
  401c83:	e8 82 02 00 00       	callq  401f0a <fail>
  401c88:	eb d6                	jmp    401c60 <touch3+0x3e>

0000000000401c8a <test>:
  401c8a:	48 83 ec 08          	sub    $0x8,%rsp
  401c8e:	b8 00 00 00 00       	mov    $0x0,%eax
  401c93:	e8 6b fe ff ff       	callq  401b03 <getbuf>
  401c98:	89 c6                	mov    %eax,%esi
  401c9a:	48 8d 3d 3f 17 00 00 	lea    0x173f(%rip),%rdi        # 4033e0 <_IO_stdin_used+0x3e0>
  401ca1:	b8 00 00 00 00       	mov    $0x0,%eax
  401ca6:	e8 05 f4 ff ff       	callq  4010b0 <printf@plt>
  401cab:	48 83 c4 08          	add    $0x8,%rsp
  401caf:	c3                   	retq   

0000000000401cb0 <save_char>:
  401cb0:	8b 05 6e 54 00 00    	mov    0x546e(%rip),%eax        # 407124 <gets_cnt>
  401cb6:	3d ff 03 00 00       	cmp    $0x3ff,%eax
  401cbb:	7f 4a                	jg     401d07 <save_char+0x57>
  401cbd:	89 f9                	mov    %edi,%ecx
  401cbf:	c0 e9 04             	shr    $0x4,%cl
  401cc2:	8d 14 40             	lea    (%rax,%rax,2),%edx
  401cc5:	4c 8d 05 84 19 00 00 	lea    0x1984(%rip),%r8        # 403650 <trans_char>
  401ccc:	83 e1 0f             	and    $0xf,%ecx
  401ccf:	45 0f b6 0c 08       	movzbl (%r8,%rcx,1),%r9d
  401cd4:	48 8d 0d 45 48 00 00 	lea    0x4845(%rip),%rcx        # 406520 <gets_buf>
  401cdb:	48 63 f2             	movslq %edx,%rsi
  401cde:	44 88 0c 31          	mov    %r9b,(%rcx,%rsi,1)
  401ce2:	8d 72 01             	lea    0x1(%rdx),%esi
  401ce5:	83 e7 0f             	and    $0xf,%edi
  401ce8:	41 0f b6 3c 38       	movzbl (%r8,%rdi,1),%edi
  401ced:	48 63 f6             	movslq %esi,%rsi
  401cf0:	40 88 3c 31          	mov    %dil,(%rcx,%rsi,1)
  401cf4:	83 c2 02             	add    $0x2,%edx
  401cf7:	48 63 d2             	movslq %edx,%rdx
  401cfa:	c6 04 11 20          	movb   $0x20,(%rcx,%rdx,1)
  401cfe:	83 c0 01             	add    $0x1,%eax
  401d01:	89 05 1d 54 00 00    	mov    %eax,0x541d(%rip)        # 407124 <gets_cnt>
  401d07:	c3                   	retq   

0000000000401d08 <save_term>:
  401d08:	8b 05 16 54 00 00    	mov    0x5416(%rip),%eax        # 407124 <gets_cnt>
  401d0e:	8d 04 40             	lea    (%rax,%rax,2),%eax
  401d11:	48 98                	cltq   
  401d13:	48 8d 15 06 48 00 00 	lea    0x4806(%rip),%rdx        # 406520 <gets_buf>
  401d1a:	c6 04 02 00          	movb   $0x0,(%rdx,%rax,1)
  401d1e:	c3                   	retq   

0000000000401d1f <check_fail>:
  401d1f:	48 83 ec 08          	sub    $0x8,%rsp
  401d23:	0f be 35 fe 53 00 00 	movsbl 0x53fe(%rip),%esi        # 407128 <target_prefix>
  401d2a:	48 8d 0d ef 47 00 00 	lea    0x47ef(%rip),%rcx        # 406520 <gets_buf>
  401d31:	8b 15 c5 47 00 00    	mov    0x47c5(%rip),%edx        # 4064fc <check_level>
  401d37:	48 8d 3d c5 16 00 00 	lea    0x16c5(%rip),%rdi        # 403403 <_IO_stdin_used+0x403>
  401d3e:	b8 00 00 00 00       	mov    $0x0,%eax
  401d43:	e8 68 f3 ff ff       	callq  4010b0 <printf@plt>
  401d48:	bf 01 00 00 00       	mov    $0x1,%edi
  401d4d:	e8 9e f4 ff ff       	callq  4011f0 <exit@plt>

0000000000401d52 <Gets>:
  401d52:	41 54                	push   %r12
  401d54:	55                   	push   %rbp
  401d55:	53                   	push   %rbx
  401d56:	49 89 fc             	mov    %rdi,%r12
  401d59:	c7 05 c1 53 00 00 00 	movl   $0x0,0x53c1(%rip)        # 407124 <gets_cnt>
  401d60:	00 00 00 
  401d63:	48 89 fb             	mov    %rdi,%rbx
  401d66:	48 8b 3d 83 47 00 00 	mov    0x4783(%rip),%rdi        # 4064f0 <infile>
  401d6d:	e8 9e f4 ff ff       	callq  401210 <getc@plt>
  401d72:	83 f8 ff             	cmp    $0xffffffff,%eax
  401d75:	74 18                	je     401d8f <Gets+0x3d>
  401d77:	83 f8 0a             	cmp    $0xa,%eax
  401d7a:	74 13                	je     401d8f <Gets+0x3d>
  401d7c:	48 8d 6b 01          	lea    0x1(%rbx),%rbp
  401d80:	88 03                	mov    %al,(%rbx)
  401d82:	0f b6 f8             	movzbl %al,%edi
  401d85:	e8 26 ff ff ff       	callq  401cb0 <save_char>
  401d8a:	48 89 eb             	mov    %rbp,%rbx
  401d8d:	eb d7                	jmp    401d66 <Gets+0x14>
  401d8f:	c6 03 00             	movb   $0x0,(%rbx)
  401d92:	b8 00 00 00 00       	mov    $0x0,%eax
  401d97:	e8 6c ff ff ff       	callq  401d08 <save_term>
  401d9c:	4c 89 e0             	mov    %r12,%rax
  401d9f:	5b                   	pop    %rbx
  401da0:	5d                   	pop    %rbp
  401da1:	41 5c                	pop    %r12
  401da3:	c3                   	retq   

0000000000401da4 <notify_server>:
  401da4:	83 3d 61 47 00 00 00 	cmpl   $0x0,0x4761(%rip)        # 40650c <is_checker>
  401dab:	0f 85 9a 00 00 00    	jne    401e4b <notify_server+0xa7>
  401db1:	53                   	push   %rbx
  401db2:	48 81 ec 00 20 00 00 	sub    $0x2000,%rsp
  401db9:	81 3d 61 53 00 00 9c 	cmpl   $0x1f9c,0x5361(%rip)        # 407124 <gets_cnt>
  401dc0:	1f 00 00 
  401dc3:	7f 5a                	jg     401e1f <notify_server+0x7b>
  401dc5:	44 0f be 0d 5b 53 00 	movsbl 0x535b(%rip),%r9d        # 407128 <target_prefix>
  401dcc:	00 
  401dcd:	83 3d 24 47 00 00 00 	cmpl   $0x0,0x4724(%rip)        # 4064f8 <notify>
  401dd4:	74 64                	je     401e3a <notify_server+0x96>
  401dd6:	44 8b 05 27 47 00 00 	mov    0x4727(%rip),%r8d        # 406504 <authkey>
  401ddd:	85 ff                	test   %edi,%edi
  401ddf:	74 61                	je     401e42 <notify_server+0x9e>
  401de1:	48 8d 1d 36 16 00 00 	lea    0x1636(%rip),%rbx        # 40341e <_IO_stdin_used+0x41e>
  401de8:	48 89 e7             	mov    %rsp,%rdi
  401deb:	48 8d 05 2e 47 00 00 	lea    0x472e(%rip),%rax        # 406520 <gets_buf>
  401df2:	50                   	push   %rax
  401df3:	56                   	push   %rsi
  401df4:	48 89 d9             	mov    %rbx,%rcx
  401df7:	8b 15 33 43 00 00    	mov    0x4333(%rip),%edx        # 406130 <target_id>
  401dfd:	48 8d 35 1f 16 00 00 	lea    0x161f(%rip),%rsi        # 403423 <_IO_stdin_used+0x423>
  401e04:	b8 00 00 00 00       	mov    $0x0,%eax
  401e09:	e8 d2 f3 ff ff       	callq  4011e0 <sprintf@plt>
  401e0e:	48 89 df             	mov    %rbx,%rdi
  401e11:	e8 6a f2 ff ff       	callq  401080 <puts@plt>
  401e16:	48 81 c4 10 20 00 00 	add    $0x2010,%rsp
  401e1d:	5b                   	pop    %rbx
  401e1e:	c3                   	retq   
  401e1f:	48 8d 3d c2 16 00 00 	lea    0x16c2(%rip),%rdi        # 4034e8 <_IO_stdin_used+0x4e8>
  401e26:	b8 00 00 00 00       	mov    $0x0,%eax
  401e2b:	e8 80 f2 ff ff       	callq  4010b0 <printf@plt>
  401e30:	bf 01 00 00 00       	mov    $0x1,%edi
  401e35:	e8 b6 f3 ff ff       	callq  4011f0 <exit@plt>
  401e3a:	41 b8 ff ff ff ff    	mov    $0xffffffff,%r8d
  401e40:	eb 9b                	jmp    401ddd <notify_server+0x39>
  401e42:	48 8d 1d d0 15 00 00 	lea    0x15d0(%rip),%rbx        # 403419 <_IO_stdin_used+0x419>
  401e49:	eb 9d                	jmp    401de8 <notify_server+0x44>
  401e4b:	c3                   	retq   

0000000000401e4c <validate>:
  401e4c:	53                   	push   %rbx
  401e4d:	89 fb                	mov    %edi,%ebx
  401e4f:	83 3d b6 46 00 00 00 	cmpl   $0x0,0x46b6(%rip)        # 40650c <is_checker>
  401e56:	74 68                	je     401ec0 <validate+0x74>
  401e58:	39 3d a2 46 00 00    	cmp    %edi,0x46a2(%rip)        # 406500 <vlevel>
  401e5e:	75 2d                	jne    401e8d <validate+0x41>
  401e60:	8b 35 96 46 00 00    	mov    0x4696(%rip),%esi        # 4064fc <check_level>
  401e66:	39 fe                	cmp    %edi,%esi
  401e68:	75 39                	jne    401ea3 <validate+0x57>
  401e6a:	0f be 35 b7 52 00 00 	movsbl 0x52b7(%rip),%esi        # 407128 <target_prefix>
  401e71:	48 8d 0d a8 46 00 00 	lea    0x46a8(%rip),%rcx        # 406520 <gets_buf>
  401e78:	89 fa                	mov    %edi,%edx
  401e7a:	48 8d 3d dc 15 00 00 	lea    0x15dc(%rip),%rdi        # 40345d <_IO_stdin_used+0x45d>
  401e81:	b8 00 00 00 00       	mov    $0x0,%eax
  401e86:	e8 25 f2 ff ff       	callq  4010b0 <printf@plt>
  401e8b:	5b                   	pop    %rbx
  401e8c:	c3                   	retq   
  401e8d:	48 8d 3d ab 15 00 00 	lea    0x15ab(%rip),%rdi        # 40343f <_IO_stdin_used+0x43f>
  401e94:	e8 e7 f1 ff ff       	callq  401080 <puts@plt>
  401e99:	b8 00 00 00 00       	mov    $0x0,%eax
  401e9e:	e8 7c fe ff ff       	callq  401d1f <check_fail>
  401ea3:	89 fa                	mov    %edi,%edx
  401ea5:	48 8d 3d 6c 16 00 00 	lea    0x166c(%rip),%rdi        # 403518 <_IO_stdin_used+0x518>
  401eac:	b8 00 00 00 00       	mov    $0x0,%eax
  401eb1:	e8 fa f1 ff ff       	callq  4010b0 <printf@plt>
  401eb6:	b8 00 00 00 00       	mov    $0x0,%eax
  401ebb:	e8 5f fe ff ff       	callq  401d1f <check_fail>
  401ec0:	39 3d 3a 46 00 00    	cmp    %edi,0x463a(%rip)        # 406500 <vlevel>
  401ec6:	74 1a                	je     401ee2 <validate+0x96>
  401ec8:	48 8d 3d 70 15 00 00 	lea    0x1570(%rip),%rdi        # 40343f <_IO_stdin_used+0x43f>
  401ecf:	e8 ac f1 ff ff       	callq  401080 <puts@plt>
  401ed4:	89 de                	mov    %ebx,%esi
  401ed6:	bf 00 00 00 00       	mov    $0x0,%edi
  401edb:	e8 c4 fe ff ff       	callq  401da4 <notify_server>
  401ee0:	eb a9                	jmp    401e8b <validate+0x3f>
  401ee2:	0f be 15 3f 52 00 00 	movsbl 0x523f(%rip),%edx        # 407128 <target_prefix>
  401ee9:	89 fe                	mov    %edi,%esi
  401eeb:	48 8d 3d 4e 16 00 00 	lea    0x164e(%rip),%rdi        # 403540 <_IO_stdin_used+0x540>
  401ef2:	b8 00 00 00 00       	mov    $0x0,%eax
  401ef7:	e8 b4 f1 ff ff       	callq  4010b0 <printf@plt>
  401efc:	89 de                	mov    %ebx,%esi
  401efe:	bf 01 00 00 00       	mov    $0x1,%edi
  401f03:	e8 9c fe ff ff       	callq  401da4 <notify_server>
  401f08:	eb 81                	jmp    401e8b <validate+0x3f>

0000000000401f0a <fail>:
  401f0a:	48 83 ec 08          	sub    $0x8,%rsp
  401f0e:	83 3d f7 45 00 00 00 	cmpl   $0x0,0x45f7(%rip)        # 40650c <is_checker>
  401f15:	75 11                	jne    401f28 <fail+0x1e>
  401f17:	89 fe                	mov    %edi,%esi
  401f19:	bf 00 00 00 00       	mov    $0x0,%edi
  401f1e:	e8 81 fe ff ff       	callq  401da4 <notify_server>
  401f23:	48 83 c4 08          	add    $0x8,%rsp
  401f27:	c3                   	retq   
  401f28:	b8 00 00 00 00       	mov    $0x0,%eax
  401f2d:	e8 ed fd ff ff       	callq  401d1f <check_fail>

0000000000401f32 <bushandler>:
  401f32:	48 83 ec 08          	sub    $0x8,%rsp
  401f36:	83 3d cf 45 00 00 00 	cmpl   $0x0,0x45cf(%rip)        # 40650c <is_checker>
  401f3d:	74 16                	je     401f55 <bushandler+0x23>
  401f3f:	48 8d 3d 2c 15 00 00 	lea    0x152c(%rip),%rdi        # 403472 <_IO_stdin_used+0x472>
  401f46:	e8 35 f1 ff ff       	callq  401080 <puts@plt>
  401f4b:	b8 00 00 00 00       	mov    $0x0,%eax
  401f50:	e8 ca fd ff ff       	callq  401d1f <check_fail>
  401f55:	48 8d 3d 1c 16 00 00 	lea    0x161c(%rip),%rdi        # 403578 <_IO_stdin_used+0x578>
  401f5c:	e8 1f f1 ff ff       	callq  401080 <puts@plt>
  401f61:	48 8d 3d 14 15 00 00 	lea    0x1514(%rip),%rdi        # 40347c <_IO_stdin_used+0x47c>
  401f68:	e8 13 f1 ff ff       	callq  401080 <puts@plt>
  401f6d:	be 00 00 00 00       	mov    $0x0,%esi
  401f72:	bf 00 00 00 00       	mov    $0x0,%edi
  401f77:	e8 28 fe ff ff       	callq  401da4 <notify_server>
  401f7c:	bf 01 00 00 00       	mov    $0x1,%edi
  401f81:	e8 6a f2 ff ff       	callq  4011f0 <exit@plt>

0000000000401f86 <seghandler>:
  401f86:	48 83 ec 08          	sub    $0x8,%rsp
  401f8a:	83 3d 7b 45 00 00 00 	cmpl   $0x0,0x457b(%rip)        # 40650c <is_checker>
  401f91:	74 16                	je     401fa9 <seghandler+0x23>
  401f93:	48 8d 3d f8 14 00 00 	lea    0x14f8(%rip),%rdi        # 403492 <_IO_stdin_used+0x492>
  401f9a:	e8 e1 f0 ff ff       	callq  401080 <puts@plt>
  401f9f:	b8 00 00 00 00       	mov    $0x0,%eax
  401fa4:	e8 76 fd ff ff       	callq  401d1f <check_fail>
  401fa9:	48 8d 3d e8 15 00 00 	lea    0x15e8(%rip),%rdi        # 403598 <_IO_stdin_used+0x598>
  401fb0:	e8 cb f0 ff ff       	callq  401080 <puts@plt>
  401fb5:	48 8d 3d c0 14 00 00 	lea    0x14c0(%rip),%rdi        # 40347c <_IO_stdin_used+0x47c>
  401fbc:	e8 bf f0 ff ff       	callq  401080 <puts@plt>
  401fc1:	be 00 00 00 00       	mov    $0x0,%esi
  401fc6:	bf 00 00 00 00       	mov    $0x0,%edi
  401fcb:	e8 d4 fd ff ff       	callq  401da4 <notify_server>
  401fd0:	bf 01 00 00 00       	mov    $0x1,%edi
  401fd5:	e8 16 f2 ff ff       	callq  4011f0 <exit@plt>

0000000000401fda <illegalhandler>:
  401fda:	48 83 ec 08          	sub    $0x8,%rsp
  401fde:	83 3d 27 45 00 00 00 	cmpl   $0x0,0x4527(%rip)        # 40650c <is_checker>
  401fe5:	74 16                	je     401ffd <illegalhandler+0x23>
  401fe7:	48 8d 3d b7 14 00 00 	lea    0x14b7(%rip),%rdi        # 4034a5 <_IO_stdin_used+0x4a5>
  401fee:	e8 8d f0 ff ff       	callq  401080 <puts@plt>
  401ff3:	b8 00 00 00 00       	mov    $0x0,%eax
  401ff8:	e8 22 fd ff ff       	callq  401d1f <check_fail>
  401ffd:	48 8d 3d bc 15 00 00 	lea    0x15bc(%rip),%rdi        # 4035c0 <_IO_stdin_used+0x5c0>
  402004:	e8 77 f0 ff ff       	callq  401080 <puts@plt>
  402009:	48 8d 3d 6c 14 00 00 	lea    0x146c(%rip),%rdi        # 40347c <_IO_stdin_used+0x47c>
  402010:	e8 6b f0 ff ff       	callq  401080 <puts@plt>
  402015:	be 00 00 00 00       	mov    $0x0,%esi
  40201a:	bf 00 00 00 00       	mov    $0x0,%edi
  40201f:	e8 80 fd ff ff       	callq  401da4 <notify_server>
  402024:	bf 01 00 00 00       	mov    $0x1,%edi
  402029:	e8 c2 f1 ff ff       	callq  4011f0 <exit@plt>

000000000040202e <sigalrmhandler>:
  40202e:	48 83 ec 08          	sub    $0x8,%rsp
  402032:	83 3d d3 44 00 00 00 	cmpl   $0x0,0x44d3(%rip)        # 40650c <is_checker>
  402039:	74 16                	je     402051 <sigalrmhandler+0x23>
  40203b:	48 8d 3d 77 14 00 00 	lea    0x1477(%rip),%rdi        # 4034b9 <_IO_stdin_used+0x4b9>
  402042:	e8 39 f0 ff ff       	callq  401080 <puts@plt>
  402047:	b8 00 00 00 00       	mov    $0x0,%eax
  40204c:	e8 ce fc ff ff       	callq  401d1f <check_fail>
  402051:	be 05 00 00 00       	mov    $0x5,%esi
  402056:	48 8d 3d 93 15 00 00 	lea    0x1593(%rip),%rdi        # 4035f0 <_IO_stdin_used+0x5f0>
  40205d:	b8 00 00 00 00       	mov    $0x0,%eax
  402062:	e8 49 f0 ff ff       	callq  4010b0 <printf@plt>
  402067:	be 00 00 00 00       	mov    $0x0,%esi
  40206c:	bf 00 00 00 00       	mov    $0x0,%edi
  402071:	e8 2e fd ff ff       	callq  401da4 <notify_server>
  402076:	bf 01 00 00 00       	mov    $0x1,%edi
  40207b:	e8 70 f1 ff ff       	callq  4011f0 <exit@plt>

0000000000402080 <launch>:
  402080:	55                   	push   %rbp
  402081:	48 89 e5             	mov    %rsp,%rbp
  402084:	48 89 fa             	mov    %rdi,%rdx
  402087:	48 8d 47 17          	lea    0x17(%rdi),%rax
  40208b:	48 83 e0 f0          	and    $0xfffffffffffffff0,%rax
  40208f:	48 29 c4             	sub    %rax,%rsp
  402092:	48 8d 7c 24 0f       	lea    0xf(%rsp),%rdi
  402097:	48 83 e7 f0          	and    $0xfffffffffffffff0,%rdi
  40209b:	be f4 00 00 00       	mov    $0xf4,%esi
  4020a0:	e8 1b f0 ff ff       	callq  4010c0 <memset@plt>
  4020a5:	48 8b 05 f4 43 00 00 	mov    0x43f4(%rip),%rax        # 4064a0 <stdin@@GLIBC_2.2.5>
  4020ac:	48 39 05 3d 44 00 00 	cmp    %rax,0x443d(%rip)        # 4064f0 <infile>
  4020b3:	74 2b                	je     4020e0 <launch+0x60>
  4020b5:	c7 05 41 44 00 00 00 	movl   $0x0,0x4441(%rip)        # 406500 <vlevel>
  4020bc:	00 00 00 
  4020bf:	b8 00 00 00 00       	mov    $0x0,%eax
  4020c4:	e8 c1 fb ff ff       	callq  401c8a <test>
  4020c9:	83 3d 3c 44 00 00 00 	cmpl   $0x0,0x443c(%rip)        # 40650c <is_checker>
  4020d0:	75 21                	jne    4020f3 <launch+0x73>
  4020d2:	48 8d 3d 00 14 00 00 	lea    0x1400(%rip),%rdi        # 4034d9 <_IO_stdin_used+0x4d9>
  4020d9:	e8 a2 ef ff ff       	callq  401080 <puts@plt>
  4020de:	c9                   	leaveq 
  4020df:	c3                   	retq   
  4020e0:	48 8d 3d da 13 00 00 	lea    0x13da(%rip),%rdi        # 4034c1 <_IO_stdin_used+0x4c1>
  4020e7:	b8 00 00 00 00       	mov    $0x0,%eax
  4020ec:	e8 bf ef ff ff       	callq  4010b0 <printf@plt>
  4020f1:	eb c2                	jmp    4020b5 <launch+0x35>
  4020f3:	48 8d 3d d4 13 00 00 	lea    0x13d4(%rip),%rdi        # 4034ce <_IO_stdin_used+0x4ce>
  4020fa:	e8 81 ef ff ff       	callq  401080 <puts@plt>
  4020ff:	b8 00 00 00 00       	mov    $0x0,%eax
  402104:	e8 16 fc ff ff       	callq  401d1f <check_fail>

0000000000402109 <stable_launch>:
  402109:	53                   	push   %rbx
  40210a:	48 89 3d d7 43 00 00 	mov    %rdi,0x43d7(%rip)        # 4064e8 <global_offset>
  402111:	41 b9 00 00 00 00    	mov    $0x0,%r9d
  402117:	41 b8 00 00 00 00    	mov    $0x0,%r8d
  40211d:	b9 32 01 00 00       	mov    $0x132,%ecx
  402122:	ba 07 00 00 00       	mov    $0x7,%edx
  402127:	be 00 00 10 00       	mov    $0x100000,%esi
  40212c:	bf 00 60 58 55       	mov    $0x55586000,%edi
  402131:	e8 6a ef ff ff       	callq  4010a0 <mmap@plt>
  402136:	48 89 c3             	mov    %rax,%rbx
  402139:	48 3d 00 60 58 55    	cmp    $0x55586000,%rax
  40213f:	75 43                	jne    402184 <stable_launch+0x7b>
  402141:	48 8d 90 f8 ff 0f 00 	lea    0xffff8(%rax),%rdx
  402148:	48 89 15 e1 4f 00 00 	mov    %rdx,0x4fe1(%rip)        # 407130 <stack_top>
  40214f:	48 89 e0             	mov    %rsp,%rax
  402152:	48 89 d4             	mov    %rdx,%rsp
  402155:	48 89 c2             	mov    %rax,%rdx
  402158:	48 89 15 81 43 00 00 	mov    %rdx,0x4381(%rip)        # 4064e0 <global_save_stack>
  40215f:	48 8b 3d 82 43 00 00 	mov    0x4382(%rip),%rdi        # 4064e8 <global_offset>
  402166:	e8 15 ff ff ff       	callq  402080 <launch>
  40216b:	48 8b 05 6e 43 00 00 	mov    0x436e(%rip),%rax        # 4064e0 <global_save_stack>
  402172:	48 89 c4             	mov    %rax,%rsp
  402175:	be 00 00 10 00       	mov    $0x100000,%esi
  40217a:	48 89 df             	mov    %rbx,%rdi
  40217d:	e8 fe ef ff ff       	callq  401180 <munmap@plt>
  402182:	5b                   	pop    %rbx
  402183:	c3                   	retq   
  402184:	be 00 00 10 00       	mov    $0x100000,%esi
  402189:	48 89 c7             	mov    %rax,%rdi
  40218c:	e8 ef ef ff ff       	callq  401180 <munmap@plt>
  402191:	ba 00 60 58 55       	mov    $0x55586000,%edx
  402196:	48 8d 35 8b 14 00 00 	lea    0x148b(%rip),%rsi        # 403628 <_IO_stdin_used+0x628>
  40219d:	48 8b 3d 1c 43 00 00 	mov    0x431c(%rip),%rdi        # 4064c0 <stderr@@GLIBC_2.2.5>
  4021a4:	b8 00 00 00 00       	mov    $0x0,%eax
  4021a9:	e8 72 ef ff ff       	callq  401120 <fprintf@plt>
  4021ae:	bf 01 00 00 00       	mov    $0x1,%edi
  4021b3:	e8 38 f0 ff ff       	callq  4011f0 <exit@plt>

00000000004021b8 <rio_readinitb>:
  4021b8:	89 37                	mov    %esi,(%rdi)
  4021ba:	c7 47 04 00 00 00 00 	movl   $0x0,0x4(%rdi)
  4021c1:	48 8d 47 10          	lea    0x10(%rdi),%rax
  4021c5:	48 89 47 08          	mov    %rax,0x8(%rdi)
  4021c9:	c3                   	retq   

00000000004021ca <sigalrm_handler>:
  4021ca:	48 83 ec 08          	sub    $0x8,%rsp
  4021ce:	ba 00 00 00 00       	mov    $0x0,%edx
  4021d3:	48 8d 35 86 14 00 00 	lea    0x1486(%rip),%rsi        # 403660 <trans_char+0x10>
  4021da:	48 8b 3d df 42 00 00 	mov    0x42df(%rip),%rdi        # 4064c0 <stderr@@GLIBC_2.2.5>
  4021e1:	b8 00 00 00 00       	mov    $0x0,%eax
  4021e6:	e8 35 ef ff ff       	callq  401120 <fprintf@plt>
  4021eb:	bf 01 00 00 00       	mov    $0x1,%edi
  4021f0:	e8 fb ef ff ff       	callq  4011f0 <exit@plt>

00000000004021f5 <urlencode>:
  4021f5:	41 54                	push   %r12
  4021f7:	55                   	push   %rbp
  4021f8:	53                   	push   %rbx
  4021f9:	48 83 ec 10          	sub    $0x10,%rsp
  4021fd:	48 89 fb             	mov    %rdi,%rbx
  402200:	48 89 f5             	mov    %rsi,%rbp
  402203:	48 c7 c1 ff ff ff ff 	mov    $0xffffffffffffffff,%rcx
  40220a:	b8 00 00 00 00       	mov    $0x0,%eax
  40220f:	f2 ae                	repnz scas %es:(%rdi),%al
  402211:	48 89 ce             	mov    %rcx,%rsi
  402214:	48 f7 d6             	not    %rsi
  402217:	8d 46 ff             	lea    -0x1(%rsi),%eax
  40221a:	eb 0e                	jmp    40222a <urlencode+0x35>
  40221c:	88 55 00             	mov    %dl,0x0(%rbp)
  40221f:	48 8d 6d 01          	lea    0x1(%rbp),%rbp
  402223:	48 83 c3 01          	add    $0x1,%rbx
  402227:	44 89 e0             	mov    %r12d,%eax
  40222a:	44 8d 60 ff          	lea    -0x1(%rax),%r12d
  40222e:	85 c0                	test   %eax,%eax
  402230:	0f 84 95 00 00 00    	je     4022cb <urlencode+0xd6>
  402236:	0f b6 13             	movzbl (%rbx),%edx
  402239:	80 fa 2a             	cmp    $0x2a,%dl
  40223c:	0f 94 c1             	sete   %cl
  40223f:	80 fa 2d             	cmp    $0x2d,%dl
  402242:	0f 94 c0             	sete   %al
  402245:	08 c1                	or     %al,%cl
  402247:	75 d3                	jne    40221c <urlencode+0x27>
  402249:	80 fa 2e             	cmp    $0x2e,%dl
  40224c:	74 ce                	je     40221c <urlencode+0x27>
  40224e:	80 fa 5f             	cmp    $0x5f,%dl
  402251:	74 c9                	je     40221c <urlencode+0x27>
  402253:	8d 42 d0             	lea    -0x30(%rdx),%eax
  402256:	3c 09                	cmp    $0x9,%al
  402258:	76 c2                	jbe    40221c <urlencode+0x27>
  40225a:	8d 42 bf             	lea    -0x41(%rdx),%eax
  40225d:	3c 19                	cmp    $0x19,%al
  40225f:	76 bb                	jbe    40221c <urlencode+0x27>
  402261:	8d 42 9f             	lea    -0x61(%rdx),%eax
  402264:	3c 19                	cmp    $0x19,%al
  402266:	76 b4                	jbe    40221c <urlencode+0x27>
  402268:	80 fa 20             	cmp    $0x20,%dl
  40226b:	74 4c                	je     4022b9 <urlencode+0xc4>
  40226d:	8d 42 e0             	lea    -0x20(%rdx),%eax
  402270:	3c 5f                	cmp    $0x5f,%al
  402272:	0f 96 c1             	setbe  %cl
  402275:	80 fa 09             	cmp    $0x9,%dl
  402278:	0f 94 c0             	sete   %al
  40227b:	08 c1                	or     %al,%cl
  40227d:	74 47                	je     4022c6 <urlencode+0xd1>
  40227f:	0f b6 d2             	movzbl %dl,%edx
  402282:	48 8d 7c 24 08       	lea    0x8(%rsp),%rdi
  402287:	48 8d 35 6a 14 00 00 	lea    0x146a(%rip),%rsi        # 4036f8 <trans_char+0xa8>
  40228e:	b8 00 00 00 00       	mov    $0x0,%eax
  402293:	e8 48 ef ff ff       	callq  4011e0 <sprintf@plt>
  402298:	0f b6 44 24 08       	movzbl 0x8(%rsp),%eax
  40229d:	88 45 00             	mov    %al,0x0(%rbp)
  4022a0:	0f b6 44 24 09       	movzbl 0x9(%rsp),%eax
  4022a5:	88 45 01             	mov    %al,0x1(%rbp)
  4022a8:	0f b6 44 24 0a       	movzbl 0xa(%rsp),%eax
  4022ad:	88 45 02             	mov    %al,0x2(%rbp)
  4022b0:	48 8d 6d 03          	lea    0x3(%rbp),%rbp
  4022b4:	e9 6a ff ff ff       	jmpq   402223 <urlencode+0x2e>
  4022b9:	c6 45 00 2b          	movb   $0x2b,0x0(%rbp)
  4022bd:	48 8d 6d 01          	lea    0x1(%rbp),%rbp
  4022c1:	e9 5d ff ff ff       	jmpq   402223 <urlencode+0x2e>
  4022c6:	b8 ff ff ff ff       	mov    $0xffffffff,%eax
  4022cb:	48 83 c4 10          	add    $0x10,%rsp
  4022cf:	5b                   	pop    %rbx
  4022d0:	5d                   	pop    %rbp
  4022d1:	41 5c                	pop    %r12
  4022d3:	c3                   	retq   

00000000004022d4 <rio_writen>:
  4022d4:	41 55                	push   %r13
  4022d6:	41 54                	push   %r12
  4022d8:	55                   	push   %rbp
  4022d9:	53                   	push   %rbx
  4022da:	48 83 ec 08          	sub    $0x8,%rsp
  4022de:	41 89 fc             	mov    %edi,%r12d
  4022e1:	48 89 f5             	mov    %rsi,%rbp
  4022e4:	49 89 d5             	mov    %rdx,%r13
  4022e7:	48 89 d3             	mov    %rdx,%rbx
  4022ea:	eb 06                	jmp    4022f2 <rio_writen+0x1e>
  4022ec:	48 29 c3             	sub    %rax,%rbx
  4022ef:	48 01 c5             	add    %rax,%rbp
  4022f2:	48 85 db             	test   %rbx,%rbx
  4022f5:	74 24                	je     40231b <rio_writen+0x47>
  4022f7:	48 89 da             	mov    %rbx,%rdx
  4022fa:	48 89 ee             	mov    %rbp,%rsi
  4022fd:	44 89 e7             	mov    %r12d,%edi
  402300:	e8 8b ed ff ff       	callq  401090 <write@plt>
  402305:	48 85 c0             	test   %rax,%rax
  402308:	7f e2                	jg     4022ec <rio_writen+0x18>
  40230a:	e8 31 ed ff ff       	callq  401040 <__errno_location@plt>
  40230f:	83 38 04             	cmpl   $0x4,(%rax)
  402312:	75 15                	jne    402329 <rio_writen+0x55>
  402314:	b8 00 00 00 00       	mov    $0x0,%eax
  402319:	eb d1                	jmp    4022ec <rio_writen+0x18>
  40231b:	4c 89 e8             	mov    %r13,%rax
  40231e:	48 83 c4 08          	add    $0x8,%rsp
  402322:	5b                   	pop    %rbx
  402323:	5d                   	pop    %rbp
  402324:	41 5c                	pop    %r12
  402326:	41 5d                	pop    %r13
  402328:	c3                   	retq   
  402329:	48 c7 c0 ff ff ff ff 	mov    $0xffffffffffffffff,%rax
  402330:	eb ec                	jmp    40231e <rio_writen+0x4a>

0000000000402332 <rio_read>:
  402332:	41 55                	push   %r13
  402334:	41 54                	push   %r12
  402336:	55                   	push   %rbp
  402337:	53                   	push   %rbx
  402338:	48 83 ec 08          	sub    $0x8,%rsp
  40233c:	48 89 fb             	mov    %rdi,%rbx
  40233f:	49 89 f5             	mov    %rsi,%r13
  402342:	49 89 d4             	mov    %rdx,%r12
  402345:	eb 0a                	jmp    402351 <rio_read+0x1f>
  402347:	e8 f4 ec ff ff       	callq  401040 <__errno_location@plt>
  40234c:	83 38 04             	cmpl   $0x4,(%rax)
  40234f:	75 5a                	jne    4023ab <rio_read+0x79>
  402351:	8b 6b 04             	mov    0x4(%rbx),%ebp
  402354:	85 ed                	test   %ebp,%ebp
  402356:	7f 22                	jg     40237a <rio_read+0x48>
  402358:	48 8d 6b 10          	lea    0x10(%rbx),%rbp
  40235c:	ba 00 20 00 00       	mov    $0x2000,%edx
  402361:	48 89 ee             	mov    %rbp,%rsi
  402364:	8b 3b                	mov    (%rbx),%edi
  402366:	e8 85 ed ff ff       	callq  4010f0 <read@plt>
  40236b:	89 43 04             	mov    %eax,0x4(%rbx)
  40236e:	85 c0                	test   %eax,%eax
  402370:	78 d5                	js     402347 <rio_read+0x15>
  402372:	74 40                	je     4023b4 <rio_read+0x82>
  402374:	48 89 6b 08          	mov    %rbp,0x8(%rbx)
  402378:	eb d7                	jmp    402351 <rio_read+0x1f>
  40237a:	89 e8                	mov    %ebp,%eax
  40237c:	4c 39 e0             	cmp    %r12,%rax
  40237f:	72 03                	jb     402384 <rio_read+0x52>
  402381:	44 89 e5             	mov    %r12d,%ebp
  402384:	4c 63 e5             	movslq %ebp,%r12
  402387:	48 8b 73 08          	mov    0x8(%rbx),%rsi
  40238b:	4c 89 e2             	mov    %r12,%rdx
  40238e:	4c 89 ef             	mov    %r13,%rdi
  402391:	e8 aa ed ff ff       	callq  401140 <memcpy@plt>
  402396:	4c 01 63 08          	add    %r12,0x8(%rbx)
  40239a:	29 6b 04             	sub    %ebp,0x4(%rbx)
  40239d:	4c 89 e0             	mov    %r12,%rax
  4023a0:	48 83 c4 08          	add    $0x8,%rsp
  4023a4:	5b                   	pop    %rbx
  4023a5:	5d                   	pop    %rbp
  4023a6:	41 5c                	pop    %r12
  4023a8:	41 5d                	pop    %r13
  4023aa:	c3                   	retq   
  4023ab:	48 c7 c0 ff ff ff ff 	mov    $0xffffffffffffffff,%rax
  4023b2:	eb ec                	jmp    4023a0 <rio_read+0x6e>
  4023b4:	b8 00 00 00 00       	mov    $0x0,%eax
  4023b9:	eb e5                	jmp    4023a0 <rio_read+0x6e>

00000000004023bb <rio_readlineb>:
  4023bb:	41 55                	push   %r13
  4023bd:	41 54                	push   %r12
  4023bf:	55                   	push   %rbp
  4023c0:	53                   	push   %rbx
  4023c1:	48 83 ec 18          	sub    $0x18,%rsp
  4023c5:	49 89 fd             	mov    %rdi,%r13
  4023c8:	48 89 f5             	mov    %rsi,%rbp
  4023cb:	49 89 d4             	mov    %rdx,%r12
  4023ce:	bb 01 00 00 00       	mov    $0x1,%ebx
  4023d3:	4c 39 e3             	cmp    %r12,%rbx
  4023d6:	73 44                	jae    40241c <rio_readlineb+0x61>
  4023d8:	48 8d 74 24 0f       	lea    0xf(%rsp),%rsi
  4023dd:	ba 01 00 00 00       	mov    $0x1,%edx
  4023e2:	4c 89 ef             	mov    %r13,%rdi
  4023e5:	e8 48 ff ff ff       	callq  402332 <rio_read>
  4023ea:	83 f8 01             	cmp    $0x1,%eax
  4023ed:	75 19                	jne    402408 <rio_readlineb+0x4d>
  4023ef:	48 8d 55 01          	lea    0x1(%rbp),%rdx
  4023f3:	0f b6 44 24 0f       	movzbl 0xf(%rsp),%eax
  4023f8:	88 45 00             	mov    %al,0x0(%rbp)
  4023fb:	3c 0a                	cmp    $0xa,%al
  4023fd:	74 1a                	je     402419 <rio_readlineb+0x5e>
  4023ff:	48 83 c3 01          	add    $0x1,%rbx
  402403:	48 89 d5             	mov    %rdx,%rbp
  402406:	eb cb                	jmp    4023d3 <rio_readlineb+0x18>
  402408:	85 c0                	test   %eax,%eax
  40240a:	75 22                	jne    40242e <rio_readlineb+0x73>
  40240c:	48 83 fb 01          	cmp    $0x1,%rbx
  402410:	75 0a                	jne    40241c <rio_readlineb+0x61>
  402412:	b8 00 00 00 00       	mov    $0x0,%eax
  402417:	eb 0a                	jmp    402423 <rio_readlineb+0x68>
  402419:	48 89 d5             	mov    %rdx,%rbp
  40241c:	c6 45 00 00          	movb   $0x0,0x0(%rbp)
  402420:	48 89 d8             	mov    %rbx,%rax
  402423:	48 83 c4 18          	add    $0x18,%rsp
  402427:	5b                   	pop    %rbx
  402428:	5d                   	pop    %rbp
  402429:	41 5c                	pop    %r12
  40242b:	41 5d                	pop    %r13
  40242d:	c3                   	retq   
  40242e:	48 c7 c0 ff ff ff ff 	mov    $0xffffffffffffffff,%rax
  402435:	eb ec                	jmp    402423 <rio_readlineb+0x68>

0000000000402437 <submitr>:
  402437:	41 57                	push   %r15
  402439:	41 56                	push   %r14
  40243b:	41 55                	push   %r13
  40243d:	41 54                	push   %r12
  40243f:	55                   	push   %rbp
  402440:	53                   	push   %rbx
  402441:	48 81 ec 58 a0 00 00 	sub    $0xa058,%rsp
  402448:	49 89 fd             	mov    %rdi,%r13
  40244b:	89 74 24 14          	mov    %esi,0x14(%rsp)
  40244f:	49 89 d7             	mov    %rdx,%r15
  402452:	48 89 4c 24 08       	mov    %rcx,0x8(%rsp)
  402457:	4c 89 44 24 18       	mov    %r8,0x18(%rsp)
  40245c:	4d 89 ce             	mov    %r9,%r14
  40245f:	48 8b ac 24 90 a0 00 	mov    0xa090(%rsp),%rbp
  402466:	00 
  402467:	c7 84 24 2c 20 00 00 	movl   $0x0,0x202c(%rsp)
  40246e:	00 00 00 00 
  402472:	ba 00 00 00 00       	mov    $0x0,%edx
  402477:	be 01 00 00 00       	mov    $0x1,%esi
  40247c:	bf 02 00 00 00       	mov    $0x2,%edi
  402481:	e8 9a ed ff ff       	callq  401220 <socket@plt>
  402486:	85 c0                	test   %eax,%eax
  402488:	0f 88 9a 02 00 00    	js     402728 <submitr+0x2f1>
  40248e:	89 c3                	mov    %eax,%ebx
  402490:	4c 89 ef             	mov    %r13,%rdi
  402493:	e8 78 ec ff ff       	callq  401110 <gethostbyname@plt>
  402498:	48 85 c0             	test   %rax,%rax
  40249b:	0f 84 d3 02 00 00    	je     402774 <submitr+0x33d>
  4024a1:	4c 8d a4 24 40 a0 00 	lea    0xa040(%rsp),%r12
  4024a8:	00 
  4024a9:	48 c7 84 24 42 a0 00 	movq   $0x0,0xa042(%rsp)
  4024b0:	00 00 00 00 00 
  4024b5:	c7 84 24 4a a0 00 00 	movl   $0x0,0xa04a(%rsp)
  4024bc:	00 00 00 00 
  4024c0:	66 c7 84 24 4e a0 00 	movw   $0x0,0xa04e(%rsp)
  4024c7:	00 00 00 
  4024ca:	66 c7 84 24 40 a0 00 	movw   $0x2,0xa040(%rsp)
  4024d1:	00 02 00 
  4024d4:	48 8b 48 18          	mov    0x18(%rax),%rcx
  4024d8:	48 63 50 14          	movslq 0x14(%rax),%rdx
  4024dc:	48 8d bc 24 44 a0 00 	lea    0xa044(%rsp),%rdi
  4024e3:	00 
  4024e4:	48 8b 31             	mov    (%rcx),%rsi
  4024e7:	e8 a4 ec ff ff       	callq  401190 <memmove@plt>
  4024ec:	0f b7 44 24 14       	movzwl 0x14(%rsp),%eax
  4024f1:	66 c1 c0 08          	rol    $0x8,%ax
  4024f5:	66 89 84 24 42 a0 00 	mov    %ax,0xa042(%rsp)
  4024fc:	00 
  4024fd:	ba 10 00 00 00       	mov    $0x10,%edx
  402502:	4c 89 e6             	mov    %r12,%rsi
  402505:	89 df                	mov    %ebx,%edi
  402507:	e8 f4 ec ff ff       	callq  401200 <connect@plt>
  40250c:	85 c0                	test   %eax,%eax
  40250e:	0f 88 c8 02 00 00    	js     4027dc <submitr+0x3a5>
  402514:	48 c7 c6 ff ff ff ff 	mov    $0xffffffffffffffff,%rsi
  40251b:	b8 00 00 00 00       	mov    $0x0,%eax
  402520:	48 89 f1             	mov    %rsi,%rcx
  402523:	4c 89 f7             	mov    %r14,%rdi
  402526:	f2 ae                	repnz scas %es:(%rdi),%al
  402528:	48 89 ca             	mov    %rcx,%rdx
  40252b:	48 f7 d2             	not    %rdx
  40252e:	48 89 f1             	mov    %rsi,%rcx
  402531:	4c 89 ff             	mov    %r15,%rdi
  402534:	f2 ae                	repnz scas %es:(%rdi),%al
  402536:	48 f7 d1             	not    %rcx
  402539:	49 89 c8             	mov    %rcx,%r8
  40253c:	48 89 f1             	mov    %rsi,%rcx
  40253f:	48 8b 7c 24 08       	mov    0x8(%rsp),%rdi
  402544:	f2 ae                	repnz scas %es:(%rdi),%al
  402546:	48 f7 d1             	not    %rcx
  402549:	4d 8d 44 08 fe       	lea    -0x2(%r8,%rcx,1),%r8
  40254e:	48 89 f1             	mov    %rsi,%rcx
  402551:	48 8b 7c 24 18       	mov    0x18(%rsp),%rdi
  402556:	f2 ae                	repnz scas %es:(%rdi),%al
  402558:	48 89 c8             	mov    %rcx,%rax
  40255b:	48 f7 d0             	not    %rax
  40255e:	49 8d 4c 00 ff       	lea    -0x1(%r8,%rax,1),%rcx
  402563:	48 8d 44 52 fd       	lea    -0x3(%rdx,%rdx,2),%rax
  402568:	48 8d 84 01 80 00 00 	lea    0x80(%rcx,%rax,1),%rax
  40256f:	00 
  402570:	48 3d 00 20 00 00    	cmp    $0x2000,%rax
  402576:	0f 87 ba 02 00 00    	ja     402836 <submitr+0x3ff>
  40257c:	48 8d b4 24 30 40 00 	lea    0x4030(%rsp),%rsi
  402583:	00 
  402584:	b9 00 04 00 00       	mov    $0x400,%ecx
  402589:	b8 00 00 00 00       	mov    $0x0,%eax
  40258e:	48 89 f7             	mov    %rsi,%rdi
  402591:	f3 48 ab             	rep stos %rax,%es:(%rdi)
  402594:	4c 89 f7             	mov    %r14,%rdi
  402597:	e8 59 fc ff ff       	callq  4021f5 <urlencode>
  40259c:	85 c0                	test   %eax,%eax
  40259e:	0f 88 05 03 00 00    	js     4028a9 <submitr+0x472>
  4025a4:	4c 8d a4 24 30 60 00 	lea    0x6030(%rsp),%r12
  4025ab:	00 
  4025ac:	4d 89 e9             	mov    %r13,%r9
  4025af:	4c 8d 84 24 30 40 00 	lea    0x4030(%rsp),%r8
  4025b6:	00 
  4025b7:	4c 89 f9             	mov    %r15,%rcx
  4025ba:	48 8b 54 24 08       	mov    0x8(%rsp),%rdx
  4025bf:	48 8d 35 c2 10 00 00 	lea    0x10c2(%rip),%rsi        # 403688 <trans_char+0x38>
  4025c6:	4c 89 e7             	mov    %r12,%rdi
  4025c9:	b8 00 00 00 00       	mov    $0x0,%eax
  4025ce:	e8 0d ec ff ff       	callq  4011e0 <sprintf@plt>
  4025d3:	48 c7 c1 ff ff ff ff 	mov    $0xffffffffffffffff,%rcx
  4025da:	b8 00 00 00 00       	mov    $0x0,%eax
  4025df:	4c 89 e7             	mov    %r12,%rdi
  4025e2:	f2 ae                	repnz scas %es:(%rdi),%al
  4025e4:	48 89 ca             	mov    %rcx,%rdx
  4025e7:	48 f7 d2             	not    %rdx
  4025ea:	48 8d 52 ff          	lea    -0x1(%rdx),%rdx
  4025ee:	4c 89 e6             	mov    %r12,%rsi
  4025f1:	89 df                	mov    %ebx,%edi
  4025f3:	e8 dc fc ff ff       	callq  4022d4 <rio_writen>
  4025f8:	48 85 c0             	test   %rax,%rax
  4025fb:	0f 88 33 03 00 00    	js     402934 <submitr+0x4fd>
  402601:	4c 8d a4 24 30 80 00 	lea    0x8030(%rsp),%r12
  402608:	00 
  402609:	89 de                	mov    %ebx,%esi
  40260b:	4c 89 e7             	mov    %r12,%rdi
  40260e:	e8 a5 fb ff ff       	callq  4021b8 <rio_readinitb>
  402613:	48 8d b4 24 30 60 00 	lea    0x6030(%rsp),%rsi
  40261a:	00 
  40261b:	ba 00 20 00 00       	mov    $0x2000,%edx
  402620:	4c 89 e7             	mov    %r12,%rdi
  402623:	e8 93 fd ff ff       	callq  4023bb <rio_readlineb>
  402628:	48 85 c0             	test   %rax,%rax
  40262b:	0f 8e 72 03 00 00    	jle    4029a3 <submitr+0x56c>
  402631:	48 8d 8c 24 2c 20 00 	lea    0x202c(%rsp),%rcx
  402638:	00 
  402639:	48 8d 94 24 30 20 00 	lea    0x2030(%rsp),%rdx
  402640:	00 
  402641:	48 8d bc 24 30 60 00 	lea    0x6030(%rsp),%rdi
  402648:	00 
  402649:	4c 8d 44 24 20       	lea    0x20(%rsp),%r8
  40264e:	48 8d 35 aa 10 00 00 	lea    0x10aa(%rip),%rsi        # 4036ff <trans_char+0xaf>
  402655:	b8 00 00 00 00       	mov    $0x0,%eax
  40265a:	e8 11 eb ff ff       	callq  401170 <__isoc99_sscanf@plt>
  40265f:	48 8d b4 24 30 60 00 	lea    0x6030(%rsp),%rsi
  402666:	00 
  402667:	b9 03 00 00 00       	mov    $0x3,%ecx
  40266c:	48 8d 3d a3 10 00 00 	lea    0x10a3(%rip),%rdi        # 403716 <trans_char+0xc6>
  402673:	f3 a6                	repz cmpsb %es:(%rdi),%ds:(%rsi)
  402675:	0f 97 c0             	seta   %al
  402678:	1c 00                	sbb    $0x0,%al
  40267a:	84 c0                	test   %al,%al
  40267c:	0f 84 9f 03 00 00    	je     402a21 <submitr+0x5ea>
  402682:	48 8d b4 24 30 60 00 	lea    0x6030(%rsp),%rsi
  402689:	00 
  40268a:	48 8d bc 24 30 80 00 	lea    0x8030(%rsp),%rdi
  402691:	00 
  402692:	ba 00 20 00 00       	mov    $0x2000,%edx
  402697:	e8 1f fd ff ff       	callq  4023bb <rio_readlineb>
  40269c:	48 85 c0             	test   %rax,%rax
  40269f:	7f be                	jg     40265f <submitr+0x228>
  4026a1:	48 b8 45 72 72 6f 72 	movabs $0x43203a726f727245,%rax
  4026a8:	3a 20 43 
  4026ab:	48 ba 6c 69 65 6e 74 	movabs $0x6e7520746e65696c,%rdx
  4026b2:	20 75 6e 
  4026b5:	48 89 45 00          	mov    %rax,0x0(%rbp)
  4026b9:	48 89 55 08          	mov    %rdx,0x8(%rbp)
  4026bd:	48 b8 61 62 6c 65 20 	movabs $0x206f7420656c6261,%rax
  4026c4:	74 6f 20 
  4026c7:	48 ba 72 65 61 64 20 	movabs $0x6165682064616572,%rdx
  4026ce:	68 65 61 
  4026d1:	48 89 45 10          	mov    %rax,0x10(%rbp)
  4026d5:	48 89 55 18          	mov    %rdx,0x18(%rbp)
  4026d9:	48 b8 64 65 72 73 20 	movabs $0x6f72662073726564,%rax
  4026e0:	66 72 6f 
  4026e3:	48 ba 6d 20 74 68 65 	movabs $0x657220656874206d,%rdx
  4026ea:	20 72 65 
  4026ed:	48 89 45 20          	mov    %rax,0x20(%rbp)
  4026f1:	48 89 55 28          	mov    %rdx,0x28(%rbp)
  4026f5:	48 b8 73 75 6c 74 20 	movabs $0x72657320746c7573,%rax
  4026fc:	73 65 72 
  4026ff:	48 89 45 30          	mov    %rax,0x30(%rbp)
  402703:	c7 45 38 76 65 72 00 	movl   $0x726576,0x38(%rbp)
  40270a:	89 df                	mov    %ebx,%edi
  40270c:	e8 cf e9 ff ff       	callq  4010e0 <close@plt>
  402711:	b8 ff ff ff ff       	mov    $0xffffffff,%eax
  402716:	48 81 c4 58 a0 00 00 	add    $0xa058,%rsp
  40271d:	5b                   	pop    %rbx
  40271e:	5d                   	pop    %rbp
  40271f:	41 5c                	pop    %r12
  402721:	41 5d                	pop    %r13
  402723:	41 5e                	pop    %r14
  402725:	41 5f                	pop    %r15
  402727:	c3                   	retq   
  402728:	48 b8 45 72 72 6f 72 	movabs $0x43203a726f727245,%rax
  40272f:	3a 20 43 
  402732:	48 ba 6c 69 65 6e 74 	movabs $0x6e7520746e65696c,%rdx
  402739:	20 75 6e 
  40273c:	48 89 45 00          	mov    %rax,0x0(%rbp)
  402740:	48 89 55 08          	mov    %rdx,0x8(%rbp)
  402744:	48 b8 61 62 6c 65 20 	movabs $0x206f7420656c6261,%rax
  40274b:	74 6f 20 
  40274e:	48 ba 63 72 65 61 74 	movabs $0x7320657461657263,%rdx
  402755:	65 20 73 
  402758:	48 89 45 10          	mov    %rax,0x10(%rbp)
  40275c:	48 89 55 18          	mov    %rdx,0x18(%rbp)
  402760:	c7 45 20 6f 63 6b 65 	movl   $0x656b636f,0x20(%rbp)
  402767:	66 c7 45 24 74 00    	movw   $0x74,0x24(%rbp)
  40276d:	b8 ff ff ff ff       	mov    $0xffffffff,%eax
  402772:	eb a2                	jmp    402716 <submitr+0x2df>
  402774:	48 b8 45 72 72 6f 72 	movabs $0x44203a726f727245,%rax
  40277b:	3a 20 44 
  40277e:	48 ba 4e 53 20 69 73 	movabs $0x6e7520736920534e,%rdx
  402785:	20 75 6e 
  402788:	48 89 45 00          	mov    %rax,0x0(%rbp)
  40278c:	48 89 55 08          	mov    %rdx,0x8(%rbp)
  402790:	48 b8 61 62 6c 65 20 	movabs $0x206f7420656c6261,%rax
  402797:	74 6f 20 
  40279a:	48 ba 72 65 73 6f 6c 	movabs $0x2065766c6f736572,%rdx
  4027a1:	76 65 20 
  4027a4:	48 89 45 10          	mov    %rax,0x10(%rbp)
  4027a8:	48 89 55 18          	mov    %rdx,0x18(%rbp)
  4027ac:	48 b8 73 65 72 76 65 	movabs $0x6120726576726573,%rax
  4027b3:	72 20 61 
  4027b6:	48 89 45 20          	mov    %rax,0x20(%rbp)
  4027ba:	c7 45 28 64 64 72 65 	movl   $0x65726464,0x28(%rbp)
  4027c1:	66 c7 45 2c 73 73    	movw   $0x7373,0x2c(%rbp)
  4027c7:	c6 45 2e 00          	movb   $0x0,0x2e(%rbp)
  4027cb:	89 df                	mov    %ebx,%edi
  4027cd:	e8 0e e9 ff ff       	callq  4010e0 <close@plt>
  4027d2:	b8 ff ff ff ff       	mov    $0xffffffff,%eax
  4027d7:	e9 3a ff ff ff       	jmpq   402716 <submitr+0x2df>
  4027dc:	48 b8 45 72 72 6f 72 	movabs $0x55203a726f727245,%rax
  4027e3:	3a 20 55 
  4027e6:	48 ba 6e 61 62 6c 65 	movabs $0x6f7420656c62616e,%rdx
  4027ed:	20 74 6f 
  4027f0:	48 89 45 00          	mov    %rax,0x0(%rbp)
  4027f4:	48 89 55 08          	mov    %rdx,0x8(%rbp)
  4027f8:	48 b8 20 63 6f 6e 6e 	movabs $0x7463656e6e6f6320,%rax
  4027ff:	65 63 74 
  402802:	48 ba 20 74 6f 20 74 	movabs $0x20656874206f7420,%rdx
  402809:	68 65 20 
  40280c:	48 89 45 10          	mov    %rax,0x10(%rbp)
  402810:	48 89 55 18          	mov    %rdx,0x18(%rbp)
  402814:	c7 45 20 73 65 72 76 	movl   $0x76726573,0x20(%rbp)
  40281b:	66 c7 45 24 65 72    	movw   $0x7265,0x24(%rbp)
  402821:	c6 45 26 00          	movb   $0x0,0x26(%rbp)
  402825:	89 df                	mov    %ebx,%edi
  402827:	e8 b4 e8 ff ff       	callq  4010e0 <close@plt>
  40282c:	b8 ff ff ff ff       	mov    $0xffffffff,%eax
  402831:	e9 e0 fe ff ff       	jmpq   402716 <submitr+0x2df>
  402836:	48 b8 45 72 72 6f 72 	movabs $0x52203a726f727245,%rax
  40283d:	3a 20 52 
  402840:	48 ba 65 73 75 6c 74 	movabs $0x747320746c757365,%rdx
  402847:	20 73 74 
  40284a:	48 89 45 00          	mov    %rax,0x0(%rbp)
  40284e:	48 89 55 08          	mov    %rdx,0x8(%rbp)
  402852:	48 b8 72 69 6e 67 20 	movabs $0x6f6f7420676e6972,%rax
  402859:	74 6f 6f 
  40285c:	48 ba 20 6c 61 72 67 	movabs $0x202e656772616c20,%rdx
  402863:	65 2e 20 
  402866:	48 89 45 10          	mov    %rax,0x10(%rbp)
  40286a:	48 89 55 18          	mov    %rdx,0x18(%rbp)
  40286e:	48 b8 49 6e 63 72 65 	movabs $0x6573616572636e49,%rax
  402875:	61 73 65 
  402878:	48 ba 20 53 55 42 4d 	movabs $0x5254494d42555320,%rdx
  40287f:	49 54 52 
  402882:	48 89 45 20          	mov    %rax,0x20(%rbp)
  402886:	48 89 55 28          	mov    %rdx,0x28(%rbp)
  40288a:	48 b8 5f 4d 41 58 42 	movabs $0x46554258414d5f,%rax
  402891:	55 46 00 
  402894:	48 89 45 30          	mov    %rax,0x30(%rbp)
  402898:	89 df                	mov    %ebx,%edi
  40289a:	e8 41 e8 ff ff       	callq  4010e0 <close@plt>
  40289f:	b8 ff ff ff ff       	mov    $0xffffffff,%eax
  4028a4:	e9 6d fe ff ff       	jmpq   402716 <submitr+0x2df>
  4028a9:	48 b8 45 72 72 6f 72 	movabs $0x52203a726f727245,%rax
  4028b0:	3a 20 52 
  4028b3:	48 ba 65 73 75 6c 74 	movabs $0x747320746c757365,%rdx
  4028ba:	20 73 74 
  4028bd:	48 89 45 00          	mov    %rax,0x0(%rbp)
  4028c1:	48 89 55 08          	mov    %rdx,0x8(%rbp)
  4028c5:	48 b8 72 69 6e 67 20 	movabs $0x6e6f6320676e6972,%rax
  4028cc:	63 6f 6e 
  4028cf:	48 ba 74 61 69 6e 73 	movabs $0x6e6120736e696174,%rdx
  4028d6:	20 61 6e 
  4028d9:	48 89 45 10          	mov    %rax,0x10(%rbp)
  4028dd:	48 89 55 18          	mov    %rdx,0x18(%rbp)
  4028e1:	48 b8 20 69 6c 6c 65 	movabs $0x6c6167656c6c6920,%rax
  4028e8:	67 61 6c 
  4028eb:	48 ba 20 6f 72 20 75 	movabs $0x72706e7520726f20,%rdx
  4028f2:	6e 70 72 
  4028f5:	48 89 45 20          	mov    %rax,0x20(%rbp)
  4028f9:	48 89 55 28          	mov    %rdx,0x28(%rbp)
  4028fd:	48 b8 69 6e 74 61 62 	movabs $0x20656c6261746e69,%rax
  402904:	6c 65 20 
  402907:	48 ba 63 68 61 72 61 	movabs $0x6574636172616863,%rdx
  40290e:	63 74 65 
  402911:	48 89 45 30          	mov    %rax,0x30(%rbp)
  402915:	48 89 55 38          	mov    %rdx,0x38(%rbp)
  402919:	66 c7 45 40 72 2e    	movw   $0x2e72,0x40(%rbp)
  40291f:	c6 45 42 00          	movb   $0x0,0x42(%rbp)
  402923:	89 df                	mov    %ebx,%edi
  402925:	e8 b6 e7 ff ff       	callq  4010e0 <close@plt>
  40292a:	b8 ff ff ff ff       	mov    $0xffffffff,%eax
  40292f:	e9 e2 fd ff ff       	jmpq   402716 <submitr+0x2df>
  402934:	48 b8 45 72 72 6f 72 	movabs $0x43203a726f727245,%rax
  40293b:	3a 20 43 
  40293e:	48 ba 6c 69 65 6e 74 	movabs $0x6e7520746e65696c,%rdx
  402945:	20 75 6e 
  402948:	48 89 45 00          	mov    %rax,0x0(%rbp)
  40294c:	48 89 55 08          	mov    %rdx,0x8(%rbp)
  402950:	48 b8 61 62 6c 65 20 	movabs $0x206f7420656c6261,%rax
  402957:	74 6f 20 
  40295a:	48 ba 77 72 69 74 65 	movabs $0x6f74206574697277,%rdx
  402961:	20 74 6f 
  402964:	48 89 45 10          	mov    %rax,0x10(%rbp)
  402968:	48 89 55 18          	mov    %rdx,0x18(%rbp)
  40296c:	48 b8 20 74 68 65 20 	movabs $0x7365722065687420,%rax
  402973:	72 65 73 
  402976:	48 ba 75 6c 74 20 73 	movabs $0x7672657320746c75,%rdx
  40297d:	65 72 76 
  402980:	48 89 45 20          	mov    %rax,0x20(%rbp)
  402984:	48 89 55 28          	mov    %rdx,0x28(%rbp)
  402988:	66 c7 45 30 65 72    	movw   $0x7265,0x30(%rbp)
  40298e:	c6 45 32 00          	movb   $0x0,0x32(%rbp)
  402992:	89 df                	mov    %ebx,%edi
  402994:	e8 47 e7 ff ff       	callq  4010e0 <close@plt>
  402999:	b8 ff ff ff ff       	mov    $0xffffffff,%eax
  40299e:	e9 73 fd ff ff       	jmpq   402716 <submitr+0x2df>
  4029a3:	48 b8 45 72 72 6f 72 	movabs $0x43203a726f727245,%rax
  4029aa:	3a 20 43 
  4029ad:	48 ba 6c 69 65 6e 74 	movabs $0x6e7520746e65696c,%rdx
  4029b4:	20 75 6e 
  4029b7:	48 89 45 00          	mov    %rax,0x0(%rbp)
  4029bb:	48 89 55 08          	mov    %rdx,0x8(%rbp)
  4029bf:	48 b8 61 62 6c 65 20 	movabs $0x206f7420656c6261,%rax
  4029c6:	74 6f 20 
  4029c9:	48 ba 72 65 61 64 20 	movabs $0x7269662064616572,%rdx
  4029d0:	66 69 72 
  4029d3:	48 89 45 10          	mov    %rax,0x10(%rbp)
  4029d7:	48 89 55 18          	mov    %rdx,0x18(%rbp)
  4029db:	48 b8 73 74 20 68 65 	movabs $0x6564616568207473,%rax
  4029e2:	61 64 65 
  4029e5:	48 ba 72 20 66 72 6f 	movabs $0x72206d6f72662072,%rdx
  4029ec:	6d 20 72 
  4029ef:	48 89 45 20          	mov    %rax,0x20(%rbp)
  4029f3:	48 89 55 28          	mov    %rdx,0x28(%rbp)
  4029f7:	48 b8 65 73 75 6c 74 	movabs $0x657320746c757365,%rax
  4029fe:	20 73 65 
  402a01:	48 89 45 30          	mov    %rax,0x30(%rbp)
  402a05:	c7 45 38 72 76 65 72 	movl   $0x72657672,0x38(%rbp)
  402a0c:	c6 45 3c 00          	movb   $0x0,0x3c(%rbp)
  402a10:	89 df                	mov    %ebx,%edi
  402a12:	e8 c9 e6 ff ff       	callq  4010e0 <close@plt>
  402a17:	b8 ff ff ff ff       	mov    $0xffffffff,%eax
  402a1c:	e9 f5 fc ff ff       	jmpq   402716 <submitr+0x2df>
  402a21:	48 8d b4 24 30 60 00 	lea    0x6030(%rsp),%rsi
  402a28:	00 
  402a29:	48 8d bc 24 30 80 00 	lea    0x8030(%rsp),%rdi
  402a30:	00 
  402a31:	ba 00 20 00 00       	mov    $0x2000,%edx
  402a36:	e8 80 f9 ff ff       	callq  4023bb <rio_readlineb>
  402a3b:	48 85 c0             	test   %rax,%rax
  402a3e:	0f 8e 97 00 00 00    	jle    402adb <submitr+0x6a4>
  402a44:	8b 94 24 2c 20 00 00 	mov    0x202c(%rsp),%edx
  402a4b:	81 fa c8 00 00 00    	cmp    $0xc8,%edx
  402a51:	0f 85 08 01 00 00    	jne    402b5f <submitr+0x728>
  402a57:	48 8d b4 24 30 60 00 	lea    0x6030(%rsp),%rsi
  402a5e:	00 
  402a5f:	48 89 ef             	mov    %rbp,%rdi
  402a62:	e8 09 e6 ff ff       	callq  401070 <strcpy@plt>
  402a67:	89 df                	mov    %ebx,%edi
  402a69:	e8 72 e6 ff ff       	callq  4010e0 <close@plt>
  402a6e:	b9 04 00 00 00       	mov    $0x4,%ecx
  402a73:	48 8d 3d 96 0c 00 00 	lea    0xc96(%rip),%rdi        # 403710 <trans_char+0xc0>
  402a7a:	48 89 ee             	mov    %rbp,%rsi
  402a7d:	f3 a6                	repz cmpsb %es:(%rdi),%ds:(%rsi)
  402a7f:	0f 97 c0             	seta   %al
  402a82:	1c 00                	sbb    $0x0,%al
  402a84:	0f be c0             	movsbl %al,%eax
  402a87:	85 c0                	test   %eax,%eax
  402a89:	0f 84 87 fc ff ff    	je     402716 <submitr+0x2df>
  402a8f:	b9 05 00 00 00       	mov    $0x5,%ecx
  402a94:	48 8d 3d 79 0c 00 00 	lea    0xc79(%rip),%rdi        # 403714 <trans_char+0xc4>
  402a9b:	48 89 ee             	mov    %rbp,%rsi
  402a9e:	f3 a6                	repz cmpsb %es:(%rdi),%ds:(%rsi)
  402aa0:	0f 97 c0             	seta   %al
  402aa3:	1c 00                	sbb    $0x0,%al
  402aa5:	0f be c0             	movsbl %al,%eax
  402aa8:	85 c0                	test   %eax,%eax
  402aaa:	0f 84 66 fc ff ff    	je     402716 <submitr+0x2df>
  402ab0:	b9 03 00 00 00       	mov    $0x3,%ecx
  402ab5:	48 8d 3d 5d 0c 00 00 	lea    0xc5d(%rip),%rdi        # 403719 <trans_char+0xc9>
  402abc:	48 89 ee             	mov    %rbp,%rsi
  402abf:	f3 a6                	repz cmpsb %es:(%rdi),%ds:(%rsi)
  402ac1:	0f 97 c0             	seta   %al
  402ac4:	1c 00                	sbb    $0x0,%al
  402ac6:	0f be c0             	movsbl %al,%eax
  402ac9:	85 c0                	test   %eax,%eax
  402acb:	0f 84 45 fc ff ff    	je     402716 <submitr+0x2df>
  402ad1:	b8 ff ff ff ff       	mov    $0xffffffff,%eax
  402ad6:	e9 3b fc ff ff       	jmpq   402716 <submitr+0x2df>
  402adb:	48 b8 45 72 72 6f 72 	movabs $0x43203a726f727245,%rax
  402ae2:	3a 20 43 
  402ae5:	48 ba 6c 69 65 6e 74 	movabs $0x6e7520746e65696c,%rdx
  402aec:	20 75 6e 
  402aef:	48 89 45 00          	mov    %rax,0x0(%rbp)
  402af3:	48 89 55 08          	mov    %rdx,0x8(%rbp)
  402af7:	48 b8 61 62 6c 65 20 	movabs $0x206f7420656c6261,%rax
  402afe:	74 6f 20 
  402b01:	48 ba 72 65 61 64 20 	movabs $0x6174732064616572,%rdx
  402b08:	73 74 61 
  402b0b:	48 89 45 10          	mov    %rax,0x10(%rbp)
  402b0f:	48 89 55 18          	mov    %rdx,0x18(%rbp)
  402b13:	48 b8 74 75 73 20 6d 	movabs $0x7373656d20737574,%rax
  402b1a:	65 73 73 
  402b1d:	48 ba 61 67 65 20 66 	movabs $0x6d6f726620656761,%rdx
  402b24:	72 6f 6d 
  402b27:	48 89 45 20          	mov    %rax,0x20(%rbp)
  402b2b:	48 89 55 28          	mov    %rdx,0x28(%rbp)
  402b2f:	48 b8 20 72 65 73 75 	movabs $0x20746c7573657220,%rax
  402b36:	6c 74 20 
  402b39:	48 89 45 30          	mov    %rax,0x30(%rbp)
  402b3d:	c7 45 38 73 65 72 76 	movl   $0x76726573,0x38(%rbp)
  402b44:	66 c7 45 3c 65 72    	movw   $0x7265,0x3c(%rbp)
  402b4a:	c6 45 3e 00          	movb   $0x0,0x3e(%rbp)
  402b4e:	89 df                	mov    %ebx,%edi
  402b50:	e8 8b e5 ff ff       	callq  4010e0 <close@plt>
  402b55:	b8 ff ff ff ff       	mov    $0xffffffff,%eax
  402b5a:	e9 b7 fb ff ff       	jmpq   402716 <submitr+0x2df>
  402b5f:	48 8d 4c 24 20       	lea    0x20(%rsp),%rcx
  402b64:	48 8d 35 5d 0b 00 00 	lea    0xb5d(%rip),%rsi        # 4036c8 <trans_char+0x78>
  402b6b:	48 89 ef             	mov    %rbp,%rdi
  402b6e:	b8 00 00 00 00       	mov    $0x0,%eax
  402b73:	e8 68 e6 ff ff       	callq  4011e0 <sprintf@plt>
  402b78:	89 df                	mov    %ebx,%edi
  402b7a:	e8 61 e5 ff ff       	callq  4010e0 <close@plt>
  402b7f:	b8 ff ff ff ff       	mov    $0xffffffff,%eax
  402b84:	e9 8d fb ff ff       	jmpq   402716 <submitr+0x2df>

0000000000402b89 <init_timeout>:
  402b89:	85 ff                	test   %edi,%edi
  402b8b:	74 26                	je     402bb3 <init_timeout+0x2a>
  402b8d:	53                   	push   %rbx
  402b8e:	89 fb                	mov    %edi,%ebx
  402b90:	78 1a                	js     402bac <init_timeout+0x23>
  402b92:	48 8d 35 31 f6 ff ff 	lea    -0x9cf(%rip),%rsi        # 4021ca <sigalrm_handler>
  402b99:	bf 0e 00 00 00       	mov    $0xe,%edi
  402b9e:	e8 5d e5 ff ff       	callq  401100 <signal@plt>
  402ba3:	89 df                	mov    %ebx,%edi
  402ba5:	e8 26 e5 ff ff       	callq  4010d0 <alarm@plt>
  402baa:	5b                   	pop    %rbx
  402bab:	c3                   	retq   
  402bac:	bb 00 00 00 00       	mov    $0x0,%ebx
  402bb1:	eb df                	jmp    402b92 <init_timeout+0x9>
  402bb3:	c3                   	retq   

0000000000402bb4 <init_driver>:
  402bb4:	41 54                	push   %r12
  402bb6:	55                   	push   %rbp
  402bb7:	53                   	push   %rbx
  402bb8:	48 83 ec 10          	sub    $0x10,%rsp
  402bbc:	49 89 fc             	mov    %rdi,%r12
  402bbf:	be 01 00 00 00       	mov    $0x1,%esi
  402bc4:	bf 0d 00 00 00       	mov    $0xd,%edi
  402bc9:	e8 32 e5 ff ff       	callq  401100 <signal@plt>
  402bce:	be 01 00 00 00       	mov    $0x1,%esi
  402bd3:	bf 1d 00 00 00       	mov    $0x1d,%edi
  402bd8:	e8 23 e5 ff ff       	callq  401100 <signal@plt>
  402bdd:	be 01 00 00 00       	mov    $0x1,%esi
  402be2:	bf 1d 00 00 00       	mov    $0x1d,%edi
  402be7:	e8 14 e5 ff ff       	callq  401100 <signal@plt>
  402bec:	ba 00 00 00 00       	mov    $0x0,%edx
  402bf1:	be 01 00 00 00       	mov    $0x1,%esi
  402bf6:	bf 02 00 00 00       	mov    $0x2,%edi
  402bfb:	e8 20 e6 ff ff       	callq  401220 <socket@plt>
  402c00:	85 c0                	test   %eax,%eax
  402c02:	0f 88 8a 00 00 00    	js     402c92 <init_driver+0xde>
  402c08:	89 c3                	mov    %eax,%ebx
  402c0a:	48 8d 3d 0b 0b 00 00 	lea    0xb0b(%rip),%rdi        # 40371c <trans_char+0xcc>
  402c11:	e8 fa e4 ff ff       	callq  401110 <gethostbyname@plt>
  402c16:	48 85 c0             	test   %rax,%rax
  402c19:	0f 84 c6 00 00 00    	je     402ce5 <init_driver+0x131>
  402c1f:	48 89 e5             	mov    %rsp,%rbp
  402c22:	48 c7 44 24 02 00 00 	movq   $0x0,0x2(%rsp)
  402c29:	00 00 
  402c2b:	c7 45 0a 00 00 00 00 	movl   $0x0,0xa(%rbp)
  402c32:	66 c7 45 0e 00 00    	movw   $0x0,0xe(%rbp)
  402c38:	66 c7 04 24 02 00    	movw   $0x2,(%rsp)
  402c3e:	48 8b 48 18          	mov    0x18(%rax),%rcx
  402c42:	48 63 50 14          	movslq 0x14(%rax),%rdx
  402c46:	48 8d 7d 04          	lea    0x4(%rbp),%rdi
  402c4a:	48 8b 31             	mov    (%rcx),%rsi
  402c4d:	e8 3e e5 ff ff       	callq  401190 <memmove@plt>
  402c52:	66 c7 44 24 02 3c 9a 	movw   $0x9a3c,0x2(%rsp)
  402c59:	ba 10 00 00 00       	mov    $0x10,%edx
  402c5e:	48 89 ee             	mov    %rbp,%rsi
  402c61:	89 df                	mov    %ebx,%edi
  402c63:	e8 98 e5 ff ff       	callq  401200 <connect@plt>
  402c68:	85 c0                	test   %eax,%eax
  402c6a:	0f 88 e7 00 00 00    	js     402d57 <init_driver+0x1a3>
  402c70:	89 df                	mov    %ebx,%edi
  402c72:	e8 69 e4 ff ff       	callq  4010e0 <close@plt>
  402c77:	66 41 c7 04 24 4f 4b 	movw   $0x4b4f,(%r12)
  402c7e:	41 c6 44 24 02 00    	movb   $0x0,0x2(%r12)
  402c84:	b8 00 00 00 00       	mov    $0x0,%eax
  402c89:	48 83 c4 10          	add    $0x10,%rsp
  402c8d:	5b                   	pop    %rbx
  402c8e:	5d                   	pop    %rbp
  402c8f:	41 5c                	pop    %r12
  402c91:	c3                   	retq   
  402c92:	48 b8 45 72 72 6f 72 	movabs $0x43203a726f727245,%rax
  402c99:	3a 20 43 
  402c9c:	48 ba 6c 69 65 6e 74 	movabs $0x6e7520746e65696c,%rdx
  402ca3:	20 75 6e 
  402ca6:	49 89 04 24          	mov    %rax,(%r12)
  402caa:	49 89 54 24 08       	mov    %rdx,0x8(%r12)
  402caf:	48 b8 61 62 6c 65 20 	movabs $0x206f7420656c6261,%rax
  402cb6:	74 6f 20 
  402cb9:	48 ba 63 72 65 61 74 	movabs $0x7320657461657263,%rdx
  402cc0:	65 20 73 
  402cc3:	49 89 44 24 10       	mov    %rax,0x10(%r12)
  402cc8:	49 89 54 24 18       	mov    %rdx,0x18(%r12)
  402ccd:	41 c7 44 24 20 6f 63 	movl   $0x656b636f,0x20(%r12)
  402cd4:	6b 65 
  402cd6:	66 41 c7 44 24 24 74 	movw   $0x74,0x24(%r12)
  402cdd:	00 
  402cde:	b8 ff ff ff ff       	mov    $0xffffffff,%eax
  402ce3:	eb a4                	jmp    402c89 <init_driver+0xd5>
  402ce5:	48 b8 45 72 72 6f 72 	movabs $0x44203a726f727245,%rax
  402cec:	3a 20 44 
  402cef:	48 ba 4e 53 20 69 73 	movabs $0x6e7520736920534e,%rdx
  402cf6:	20 75 6e 
  402cf9:	49 89 04 24          	mov    %rax,(%r12)
  402cfd:	49 89 54 24 08       	mov    %rdx,0x8(%r12)
  402d02:	48 b8 61 62 6c 65 20 	movabs $0x206f7420656c6261,%rax
  402d09:	74 6f 20 
  402d0c:	48 ba 72 65 73 6f 6c 	movabs $0x2065766c6f736572,%rdx
  402d13:	76 65 20 
  402d16:	49 89 44 24 10       	mov    %rax,0x10(%r12)
  402d1b:	49 89 54 24 18       	mov    %rdx,0x18(%r12)
  402d20:	48 b8 73 65 72 76 65 	movabs $0x6120726576726573,%rax
  402d27:	72 20 61 
  402d2a:	49 89 44 24 20       	mov    %rax,0x20(%r12)
  402d2f:	41 c7 44 24 28 64 64 	movl   $0x65726464,0x28(%r12)
  402d36:	72 65 
  402d38:	66 41 c7 44 24 2c 73 	movw   $0x7373,0x2c(%r12)
  402d3f:	73 
  402d40:	41 c6 44 24 2e 00    	movb   $0x0,0x2e(%r12)
  402d46:	89 df                	mov    %ebx,%edi
  402d48:	e8 93 e3 ff ff       	callq  4010e0 <close@plt>
  402d4d:	b8 ff ff ff ff       	mov    $0xffffffff,%eax
  402d52:	e9 32 ff ff ff       	jmpq   402c89 <init_driver+0xd5>
  402d57:	48 b8 45 72 72 6f 72 	movabs $0x55203a726f727245,%rax
  402d5e:	3a 20 55 
  402d61:	48 ba 6e 61 62 6c 65 	movabs $0x6f7420656c62616e,%rdx
  402d68:	20 74 6f 
  402d6b:	49 89 04 24          	mov    %rax,(%r12)
  402d6f:	49 89 54 24 08       	mov    %rdx,0x8(%r12)
  402d74:	48 b8 20 63 6f 6e 6e 	movabs $0x7463656e6e6f6320,%rax
  402d7b:	65 63 74 
  402d7e:	48 ba 20 74 6f 20 73 	movabs $0x76726573206f7420,%rdx
  402d85:	65 72 76 
  402d88:	49 89 44 24 10       	mov    %rax,0x10(%r12)
  402d8d:	49 89 54 24 18       	mov    %rdx,0x18(%r12)
  402d92:	66 41 c7 44 24 20 65 	movw   $0x7265,0x20(%r12)
  402d99:	72 
  402d9a:	41 c6 44 24 22 00    	movb   $0x0,0x22(%r12)
  402da0:	89 df                	mov    %ebx,%edi
  402da2:	e8 39 e3 ff ff       	callq  4010e0 <close@plt>
  402da7:	b8 ff ff ff ff       	mov    $0xffffffff,%eax
  402dac:	e9 d8 fe ff ff       	jmpq   402c89 <init_driver+0xd5>

0000000000402db1 <driver_post>:
  402db1:	53                   	push   %rbx
  402db2:	4c 89 cb             	mov    %r9,%rbx
  402db5:	45 85 c0             	test   %r8d,%r8d
  402db8:	75 18                	jne    402dd2 <driver_post+0x21>
  402dba:	48 85 ff             	test   %rdi,%rdi
  402dbd:	74 05                	je     402dc4 <driver_post+0x13>
  402dbf:	80 3f 00             	cmpb   $0x0,(%rdi)
  402dc2:	75 32                	jne    402df6 <driver_post+0x45>
  402dc4:	66 c7 03 4f 4b       	movw   $0x4b4f,(%rbx)
  402dc9:	c6 43 02 00          	movb   $0x0,0x2(%rbx)
  402dcd:	44 89 c0             	mov    %r8d,%eax
  402dd0:	5b                   	pop    %rbx
  402dd1:	c3                   	retq   
  402dd2:	48 89 ce             	mov    %rcx,%rsi
  402dd5:	48 8d 3d 58 09 00 00 	lea    0x958(%rip),%rdi        # 403734 <trans_char+0xe4>
  402ddc:	b8 00 00 00 00       	mov    $0x0,%eax
  402de1:	e8 ca e2 ff ff       	callq  4010b0 <printf@plt>
  402de6:	66 c7 03 4f 4b       	movw   $0x4b4f,(%rbx)
  402deb:	c6 43 02 00          	movb   $0x0,0x2(%rbx)
  402def:	b8 00 00 00 00       	mov    $0x0,%eax
  402df4:	eb da                	jmp    402dd0 <driver_post+0x1f>
  402df6:	48 83 ec 08          	sub    $0x8,%rsp
  402dfa:	41 51                	push   %r9
  402dfc:	49 89 c9             	mov    %rcx,%r9
  402dff:	49 89 d0             	mov    %rdx,%r8
  402e02:	48 89 f9             	mov    %rdi,%rcx
  402e05:	48 89 f2             	mov    %rsi,%rdx
  402e08:	be 9a 3c 00 00       	mov    $0x3c9a,%esi
  402e0d:	48 8d 3d 08 09 00 00 	lea    0x908(%rip),%rdi        # 40371c <trans_char+0xcc>
  402e14:	e8 1e f6 ff ff       	callq  402437 <submitr>
  402e19:	48 83 c4 10          	add    $0x10,%rsp
  402e1d:	eb b1                	jmp    402dd0 <driver_post+0x1f>

0000000000402e1f <check>:
  402e1f:	89 f8                	mov    %edi,%eax
  402e21:	c1 e8 1c             	shr    $0x1c,%eax
  402e24:	74 1d                	je     402e43 <check+0x24>
  402e26:	b9 00 00 00 00       	mov    $0x0,%ecx
  402e2b:	83 f9 1f             	cmp    $0x1f,%ecx
  402e2e:	7f 0d                	jg     402e3d <check+0x1e>
  402e30:	89 f8                	mov    %edi,%eax
  402e32:	d3 e8                	shr    %cl,%eax
  402e34:	3c 0a                	cmp    $0xa,%al
  402e36:	74 11                	je     402e49 <check+0x2a>
  402e38:	83 c1 08             	add    $0x8,%ecx
  402e3b:	eb ee                	jmp    402e2b <check+0xc>
  402e3d:	b8 01 00 00 00       	mov    $0x1,%eax
  402e42:	c3                   	retq   
  402e43:	b8 00 00 00 00       	mov    $0x0,%eax
  402e48:	c3                   	retq   
  402e49:	b8 00 00 00 00       	mov    $0x0,%eax
  402e4e:	c3                   	retq   

0000000000402e4f <gencookie>:
  402e4f:	53                   	push   %rbx
  402e50:	83 c7 01             	add    $0x1,%edi
  402e53:	e8 f8 e1 ff ff       	callq  401050 <srandom@plt>
  402e58:	e8 03 e3 ff ff       	callq  401160 <random@plt>
  402e5d:	89 c3                	mov    %eax,%ebx
  402e5f:	89 c7                	mov    %eax,%edi
  402e61:	e8 b9 ff ff ff       	callq  402e1f <check>
  402e66:	85 c0                	test   %eax,%eax
  402e68:	74 ee                	je     402e58 <gencookie+0x9>
  402e6a:	89 d8                	mov    %ebx,%eax
  402e6c:	5b                   	pop    %rbx
  402e6d:	c3                   	retq   
  402e6e:	66 90                	xchg   %ax,%ax

0000000000402e70 <__libc_csu_init>:
  402e70:	41 57                	push   %r15
  402e72:	49 89 d7             	mov    %rdx,%r15
  402e75:	41 56                	push   %r14
  402e77:	49 89 f6             	mov    %rsi,%r14
  402e7a:	41 55                	push   %r13
  402e7c:	41 89 fd             	mov    %edi,%r13d
  402e7f:	41 54                	push   %r12
  402e81:	4c 8d 25 88 2f 00 00 	lea    0x2f88(%rip),%r12        # 405e10 <__frame_dummy_init_array_entry>
  402e88:	55                   	push   %rbp
  402e89:	48 8d 2d 88 2f 00 00 	lea    0x2f88(%rip),%rbp        # 405e18 <__do_global_dtors_aux_fini_array_entry>
  402e90:	53                   	push   %rbx
  402e91:	4c 29 e5             	sub    %r12,%rbp
  402e94:	48 83 ec 08          	sub    $0x8,%rsp
  402e98:	e8 63 e1 ff ff       	callq  401000 <_init>
  402e9d:	48 c1 fd 03          	sar    $0x3,%rbp
  402ea1:	74 1b                	je     402ebe <__libc_csu_init+0x4e>
  402ea3:	31 db                	xor    %ebx,%ebx
  402ea5:	0f 1f 00             	nopl   (%rax)
  402ea8:	4c 89 fa             	mov    %r15,%rdx
  402eab:	4c 89 f6             	mov    %r14,%rsi
  402eae:	44 89 ef             	mov    %r13d,%edi
  402eb1:	41 ff 14 dc          	callq  *(%r12,%rbx,8)
  402eb5:	48 83 c3 01          	add    $0x1,%rbx
  402eb9:	48 39 dd             	cmp    %rbx,%rbp
  402ebc:	75 ea                	jne    402ea8 <__libc_csu_init+0x38>
  402ebe:	48 83 c4 08          	add    $0x8,%rsp
  402ec2:	5b                   	pop    %rbx
  402ec3:	5d                   	pop    %rbp
  402ec4:	41 5c                	pop    %r12
  402ec6:	41 5d                	pop    %r13
  402ec8:	41 5e                	pop    %r14
  402eca:	41 5f                	pop    %r15
  402ecc:	c3                   	retq   
  402ecd:	0f 1f 00             	nopl   (%rax)

0000000000402ed0 <__libc_csu_fini>:
  402ed0:	c3                   	retq   

Disassembly of section .fini:

0000000000402ed4 <_fini>:
  402ed4:	48 83 ec 08          	sub    $0x8,%rsp
  402ed8:	48 83 c4 08          	add    $0x8,%rsp
  402edc:	c3                   	retq   
